---
triple:          'arm64-apple-darwin'
binary-path:     market_simulator_debug
relocations:
  - { offsetInCU: 0x3C, offset: 0x3C, size: 0x8, addend: 0x0, symName: _.str, symObjAddr: 0x67840, symBinAddr: 0x10005BE40, symSize: 0x0 }
  - { offsetInCU: 0x6D, offset: 0x6D, size: 0x8, addend: 0x0, symName: _.str.4, symObjAddr: 0x67860, symBinAddr: 0x10005BE60, symSize: 0x0 }
  - { offsetInCU: 0x8B, offset: 0x8B, size: 0x8, addend: 0x0, symName: _.str.5, symObjAddr: 0x67880, symBinAddr: 0x10005BE80, symSize: 0x0 }
  - { offsetInCU: 0x9D, offset: 0x9D, size: 0x8, addend: 0x0, symName: _.str.6, symObjAddr: 0x678A0, symBinAddr: 0x10005BEA0, symSize: 0x0 }
  - { offsetInCU: 0xBB, offset: 0xBB, size: 0x8, addend: 0x0, symName: _.str.7, symObjAddr: 0x678C0, symBinAddr: 0x10005BEC0, symSize: 0x0 }
  - { offsetInCU: 0xCD, offset: 0xCD, size: 0x8, addend: 0x0, symName: _.str.8, symObjAddr: 0x678E0, symBinAddr: 0x10005BEE0, symSize: 0x0 }
  - { offsetInCU: 0xEA, offset: 0xEA, size: 0x8, addend: 0x0, symName: _.str.16, symObjAddr: 0x67920, symBinAddr: 0x10005BF20, symSize: 0x0 }
  - { offsetInCU: 0x107, offset: 0x107, size: 0x8, addend: 0x0, symName: _.str.17, symObjAddr: 0x67940, symBinAddr: 0x10005BF40, symSize: 0x0 }
  - { offsetInCU: 0x124, offset: 0x124, size: 0x8, addend: 0x0, symName: _.str.18, symObjAddr: 0x67980, symBinAddr: 0x10005BF80, symSize: 0x0 }
  - { offsetInCU: 0x141, offset: 0x141, size: 0x8, addend: 0x0, symName: _.str.19, symObjAddr: 0x679C0, symBinAddr: 0x10005BFC0, symSize: 0x0 }
  - { offsetInCU: 0x15E, offset: 0x15E, size: 0x8, addend: 0x0, symName: _.str.20, symObjAddr: 0x67A00, symBinAddr: 0x10005C000, symSize: 0x0 }
  - { offsetInCU: 0x17B, offset: 0x17B, size: 0x8, addend: 0x0, symName: _.str.21, symObjAddr: 0x67A40, symBinAddr: 0x10005C040, symSize: 0x0 }
  - { offsetInCU: 0x198, offset: 0x198, size: 0x8, addend: 0x0, symName: _.str.22, symObjAddr: 0x67A80, symBinAddr: 0x10005C080, symSize: 0x0 }
  - { offsetInCU: 0x1B5, offset: 0x1B5, size: 0x8, addend: 0x0, symName: _.str.23, symObjAddr: 0x67AC0, symBinAddr: 0x10005C0C0, symSize: 0x0 }
  - { offsetInCU: 0x1C6, offset: 0x1C6, size: 0x8, addend: 0x0, symName: _.str.24, symObjAddr: 0x67AE0, symBinAddr: 0x10005C0E0, symSize: 0x0 }
  - { offsetInCU: 0x1D7, offset: 0x1D7, size: 0x8, addend: 0x0, symName: _.str.25, symObjAddr: 0x67B00, symBinAddr: 0x10005C100, symSize: 0x0 }
  - { offsetInCU: 0x1F4, offset: 0x1F4, size: 0x8, addend: 0x0, symName: _.str.26, symObjAddr: 0x67B20, symBinAddr: 0x10005C120, symSize: 0x0 }
  - { offsetInCU: 0x205, offset: 0x205, size: 0x8, addend: 0x0, symName: _.str.27, symObjAddr: 0x67B60, symBinAddr: 0x10005C160, symSize: 0x0 }
  - { offsetInCU: 0x216, offset: 0x216, size: 0x8, addend: 0x0, symName: _.str.28, symObjAddr: 0x67B80, symBinAddr: 0x10005C180, symSize: 0x0 }
  - { offsetInCU: 0x227, offset: 0x227, size: 0x8, addend: 0x0, symName: _.str.29, symObjAddr: 0x67BA0, symBinAddr: 0x10005C1A0, symSize: 0x0 }
  - { offsetInCU: 0x245, offset: 0x245, size: 0x8, addend: 0x0, symName: _.str.30, symObjAddr: 0x67BC0, symBinAddr: 0x10005C1C0, symSize: 0x0 }
  - { offsetInCU: 0x257, offset: 0x257, size: 0x8, addend: 0x0, symName: _.str.31, symObjAddr: 0x67C00, symBinAddr: 0x10005C200, symSize: 0x0 }
  - { offsetInCU: 0x275, offset: 0x275, size: 0x8, addend: 0x0, symName: _.str.32, symObjAddr: 0x67C20, symBinAddr: 0x10005C220, symSize: 0x0 }
  - { offsetInCU: 0x293, offset: 0x293, size: 0x8, addend: 0x0, symName: _.str.33, symObjAddr: 0x67C40, symBinAddr: 0x10005C240, symSize: 0x0 }
  - { offsetInCU: 0x2A5, offset: 0x2A5, size: 0x8, addend: 0x0, symName: _.str.34, symObjAddr: 0x67C80, symBinAddr: 0x10005C280, symSize: 0x0 }
  - { offsetInCU: 0x2C3, offset: 0x2C3, size: 0x8, addend: 0x0, symName: _.str.35, symObjAddr: 0x67CA0, symBinAddr: 0x10005C2A0, symSize: 0x0 }
  - { offsetInCU: 0x2D5, offset: 0x2D5, size: 0x8, addend: 0x0, symName: _.str.36, symObjAddr: 0x67CE0, symBinAddr: 0x10005C2E0, symSize: 0x0 }
  - { offsetInCU: 0x2E7, offset: 0x2E7, size: 0x8, addend: 0x0, symName: _.str.37, symObjAddr: 0x67D20, symBinAddr: 0x10005C320, symSize: 0x0 }
  - { offsetInCU: 0x2F9, offset: 0x2F9, size: 0x8, addend: 0x0, symName: _.str.38, symObjAddr: 0x67D60, symBinAddr: 0x10005C360, symSize: 0x0 }
  - { offsetInCU: 0x317, offset: 0x317, size: 0x8, addend: 0x0, symName: _.str.39, symObjAddr: 0x67D80, symBinAddr: 0x10005C380, symSize: 0x0 }
  - { offsetInCU: 0x335, offset: 0x335, size: 0x8, addend: 0x0, symName: _.str.40, symObjAddr: 0x67DC0, symBinAddr: 0x10005C3C0, symSize: 0x0 }
  - { offsetInCU: 0x353, offset: 0x353, size: 0x8, addend: 0x0, symName: _.str.41, symObjAddr: 0x67E20, symBinAddr: 0x10005C420, symSize: 0x0 }
  - { offsetInCU: 0x365, offset: 0x365, size: 0x8, addend: 0x0, symName: _.str.42, symObjAddr: 0x67E60, symBinAddr: 0x10005C460, symSize: 0x0 }
  - { offsetInCU: 0x383, offset: 0x383, size: 0x8, addend: 0x0, symName: _.str.43, symObjAddr: 0x67EC0, symBinAddr: 0x10005C4C0, symSize: 0x0 }
  - { offsetInCU: 0x3A1, offset: 0x3A1, size: 0x8, addend: 0x0, symName: _.str.44, symObjAddr: 0x67F00, symBinAddr: 0x10005C500, symSize: 0x0 }
  - { offsetInCU: 0x3BF, offset: 0x3BF, size: 0x8, addend: 0x0, symName: _.str.45, symObjAddr: 0x67F60, symBinAddr: 0x10005C560, symSize: 0x0 }
  - { offsetInCU: 0x3DD, offset: 0x3DD, size: 0x8, addend: 0x0, symName: _.str.46, symObjAddr: 0x67FC0, symBinAddr: 0x10005C5C0, symSize: 0x0 }
  - { offsetInCU: 0x3EF, offset: 0x3EF, size: 0x8, addend: 0x0, symName: _.str.47, symObjAddr: 0x68000, symBinAddr: 0x10005C600, symSize: 0x0 }
  - { offsetInCU: 0x40D, offset: 0x40D, size: 0x8, addend: 0x0, symName: _.str.51, symObjAddr: 0x68060, symBinAddr: 0x10005C660, symSize: 0x0 }
  - { offsetInCU: 0x940C, offset: 0x940C, size: 0x8, addend: 0x0, symName: __ZNSt3__124__put_character_sequenceB8ue170006IcNS_11char_traitsIcEEEERNS_13basic_ostreamIT_T0_EES7_PKS4_m, symObjAddr: 0x183BC, symBinAddr: 0x10001C080, symSize: 0x103C }
  - { offsetInCU: 0x9F91, offset: 0x9F91, size: 0x8, addend: 0x0, symName: __ZNSt3__117__floyd_sift_downB8ue170006INS_17_ClassicAlgPolicyERN6Market5Stock12buyerCompareENS_11__wrap_iterIPNS2_10TradeOrderEEEEET1_SA_OT0_NS_15iterator_traitsISA_E15difference_typeE, symObjAddr: 0x4C3D0, symBinAddr: 0x100050094, symSize: 0x6C0 }
  - { offsetInCU: 0xA06A, offset: 0xA06A, size: 0x8, addend: 0x0, symName: __ZNSt3__117__floyd_sift_downB8ue170006INS_17_ClassicAlgPolicyERN6Market5Stock13sellerCompareENS_11__wrap_iterIPNS2_10TradeOrderEEEEET1_SA_OT0_NS_15iterator_traitsISA_E15difference_typeE, symObjAddr: 0x4E264, symBinAddr: 0x100051F28, symSize: 0x6C0 }
  - { offsetInCU: 0xB130, offset: 0xB130, size: 0x8, addend: 0x0, symName: __ZNSt3__1lsB8ue170006INS_11char_traitsIcEEEERNS_13basic_ostreamIcT_EES6_PKc, symObjAddr: 0x17E0C, symBinAddr: 0x10001BAD0, symSize: 0xD0 }
  - { offsetInCU: 0xB176, offset: 0xB176, size: 0x8, addend: 0x0, symName: __ZNSt3__14endlB8ue170006IcNS_11char_traitsIcEEEERNS_13basic_ostreamIT_T0_EES7_, symObjAddr: 0x17FE4, symBinAddr: 0x10001BCA8, symSize: 0x3D8 }
  - { offsetInCU: 0xB1B6, offset: 0xB1B6, size: 0x8, addend: 0x0, symName: __ZNSt3__116__pad_and_outputB8ue170006IcNS_11char_traitsIcEEEENS_19ostreambuf_iteratorIT_T0_EES6_PKS4_S8_S8_RNS_8ios_baseES4_, symObjAddr: 0x1953C, symBinAddr: 0x10001D200, symSize: 0xB88 }
  - { offsetInCU: 0xB293, offset: 0xB293, size: 0x8, addend: 0x0, symName: __ZNSt3__112__to_addressB8ue170006IcEEPT_S2_, symObjAddr: 0x1B390, symBinAddr: 0x10001F054, symSize: 0x14 }
  - { offsetInCU: 0xB2FB, offset: 0xB2FB, size: 0x8, addend: 0x0, symName: __ZNSt3__19use_facetB8ue170006INS_5ctypeIcEEEERKT_RKNS_6localeE, symObjAddr: 0x1C7AC, symBinAddr: 0x100020470, symSize: 0x188 }
  - { offsetInCU: 0xB6D9, offset: 0xB6D9, size: 0x8, addend: 0x0, symName: __ZNSt3__118__constexpr_strlenB8ue170006EPKc, symObjAddr: 0x1CCA0, symBinAddr: 0x100020964, symSize: 0x24 }
  - { offsetInCU: 0xB705, offset: 0xB705, size: 0x8, addend: 0x0, symName: __ZNSt3__17getlineB8ue170006IcNS_11char_traitsIcEENS_9allocatorIcEEEERNS_13basic_istreamIT_T0_EES9_RNS_12basic_stringIS6_S7_T1_EE, symObjAddr: 0x1CD3C, symBinAddr: 0x100020A00, symSize: 0x330 }
  - { offsetInCU: 0xB75D, offset: 0xB75D, size: 0x8, addend: 0x0, symName: __ZNSt3__1rsB8ue170006IcNS_11char_traitsIcEENS_9allocatorIcEEEERNS_13basic_istreamIT_T0_EES9_RNS_12basic_stringIS6_S7_T1_EE, symObjAddr: 0x1D06C, symBinAddr: 0x100020D30, symSize: 0x1884 }
  - { offsetInCU: 0xB836, offset: 0xB836, size: 0x8, addend: 0x0, symName: __ZNSt3__1eqB8ue170006IcNS_11char_traitsIcEENS_9allocatorIcEEEEbRKNS_12basic_stringIT_T0_T1_EEPKS6_, symObjAddr: 0x1F0C4, symBinAddr: 0x100022D88, symSize: 0x120 }
  - { offsetInCU: 0xB89D, offset: 0xB89D, size: 0x8, addend: 0x0, symName: __ZNSt3__1rsB8ue170006IcNS_11char_traitsIcEEEERNS_13basic_istreamIT_T0_EES7_RS4_, symObjAddr: 0x1FC50, symBinAddr: 0x100023914, symSize: 0xCF4 }
  - { offsetInCU: 0xB927, offset: 0xB927, size: 0x8, addend: 0x0, symName: __ZNSt3__17getlineB8ue170006IcNS_11char_traitsIcEENS_9allocatorIcEEEERNS_13basic_istreamIT_T0_EES9_RNS_12basic_stringIS6_S7_T1_EES6_, symObjAddr: 0x229E4, symBinAddr: 0x1000266A8, symSize: 0xEAC }
  - { offsetInCU: 0xBDCE, offset: 0xBDCE, size: 0x8, addend: 0x0, symName: __ZNSt3__112__to_addressB8ue170006IN6Market6TraderEEEPT_S4_, symObjAddr: 0x281A0, symBinAddr: 0x10002BE64, symSize: 0x14 }
  - { offsetInCU: 0xBE03, offset: 0xBE03, size: 0x8, addend: 0x0, symName: __ZNSt3__13maxB8ue170006ImEERKT_S3_S3_, symObjAddr: 0x29D38, symBinAddr: 0x10002D9FC, symSize: 0x104 }
  - { offsetInCU: 0xBE46, offset: 0xBE46, size: 0x8, addend: 0x0, symName: __ZNSt3__13minB8ue170006ImEERKT_S3_S3_, symObjAddr: 0x29E3C, symBinAddr: 0x10002DB00, symSize: 0x104 }
  - { offsetInCU: 0xBE89, offset: 0xBE89, size: 0x8, addend: 0x0, symName: __ZNSt3__13minB8ue170006ImNS_6__lessIvvEEEERKT_S5_S5_T0_, symObjAddr: 0x2A048, symBinAddr: 0x10002DD0C, symSize: 0x2C0 }
  - { offsetInCU: 0xBF2E, offset: 0xBF2E, size: 0x8, addend: 0x0, symName: __ZNSt3__120__throw_length_errorB8ue170006EPKc, symObjAddr: 0x2A5C0, symBinAddr: 0x10002E284, symSize: 0xB4 }
  - { offsetInCU: 0xBF58, offset: 0xBF58, size: 0x8, addend: 0x0, symName: __ZNSt3__13maxB8ue170006ImNS_6__lessIvvEEEERKT_S5_S5_T0_, symObjAddr: 0x2A81C, symBinAddr: 0x10002E4E0, symSize: 0x2C0 }
  - { offsetInCU: 0xBFB8, offset: 0xBFB8, size: 0x8, addend: 0x0, symName: __ZNSt3__119__allocate_at_leastB8ue170006INS_9allocatorIN6Market6TraderEEEEENS_19__allocation_resultINS_16allocator_traitsIT_E7pointerEEERS7_m, symObjAddr: 0x2B34C, symBinAddr: 0x10002F010, symSize: 0x28C }
  - { offsetInCU: 0xBFFD, offset: 0xBFFD, size: 0x8, addend: 0x0, symName: __ZNSt3__117__libcpp_allocateB8ue170006Emm, symObjAddr: 0x2BB8C, symBinAddr: 0x10002F850, symSize: 0x60 }
  - { offsetInCU: 0xC057, offset: 0xC057, size: 0x8, addend: 0x0, symName: __ZNSt3__124__is_overaligned_for_newB8ue170006Em, symObjAddr: 0x2BBEC, symBinAddr: 0x10002F8B0, symSize: 0x20 }
  - { offsetInCU: 0xC085, offset: 0xC085, size: 0x8, addend: 0x0, symName: __ZNSt3__121__libcpp_operator_newB8ue170006IJmSt11align_val_tEEEPvDpT_, symObjAddr: 0x2BC0C, symBinAddr: 0x10002F8D0, symSize: 0x6C }
  - { offsetInCU: 0xC0D2, offset: 0xC0D2, size: 0x8, addend: 0x0, symName: __ZNSt3__121__libcpp_operator_newB8ue170006IJmEEEPvDpT_, symObjAddr: 0x2BC78, symBinAddr: 0x10002F93C, symSize: 0x24 }
  - { offsetInCU: 0xC10B, offset: 0xC10B, size: 0x8, addend: 0x0, symName: __ZNSt3__142__uninitialized_allocator_move_if_noexceptB8ue170006INS_9allocatorIN6Market6TraderEEENS_16reverse_iteratorIPS3_EES7_S3_vEET1_RT_T0_SB_S8_, symObjAddr: 0x2C8D0, symBinAddr: 0x100030594, symSize: 0x4A8 }
  - { offsetInCU: 0xC195, offset: 0xC195, size: 0x8, addend: 0x0, symName: __ZNSt3__14swapB8ue170006IPN6Market6TraderEEENS_9enable_ifIXaasr21is_move_constructibleIT_EE5valuesr18is_move_assignableIS5_EE5valueEvE4typeERS5_S8_, symObjAddr: 0x2CEA8, symBinAddr: 0x100030B6C, symSize: 0x1C0 }
  - { offsetInCU: 0xC1E6, offset: 0xC1E6, size: 0x8, addend: 0x0, symName: __ZNSt3__14moveB8ue170006INS_16reverse_iteratorIPN6Market6TraderEEES5_EET0_T_S7_S6_, symObjAddr: 0x2D3E0, symBinAddr: 0x1000310A4, symSize: 0x4B0 }
  - { offsetInCU: 0xC24D, offset: 0xC24D, size: 0x8, addend: 0x0, symName: __ZNSt3__16__moveB8ue170006INS_17_ClassicAlgPolicyENS_16reverse_iteratorIPN6Market6TraderEEES6_S6_EENS_4pairIT0_T2_EES8_T1_S9_, symObjAddr: 0x2D890, symBinAddr: 0x100031554, symSize: 0x424 }
  - { offsetInCU: 0xC2C5, offset: 0xC2C5, size: 0x8, addend: 0x0, symName: __ZNSt3__123__dispatch_copy_or_moveB8ue170006INS_17_ClassicAlgPolicyENS_11__move_loopIS1_EENS_14__move_trivialENS_16reverse_iteratorIPN6Market6TraderEEES9_S9_EENS_4pairIT2_T4_EESB_T3_SC_, symObjAddr: 0x2DCB4, symBinAddr: 0x100031978, symSize: 0x424 }
  - { offsetInCU: 0xC34F, offset: 0xC34F, size: 0x8, addend: 0x0, symName: __ZNSt3__121__unwrap_and_dispatchB8ue170006INS_10__overloadINS_11__move_loopINS_17_ClassicAlgPolicyEEENS_14__move_trivialEEENS_16reverse_iteratorIPN6Market6TraderEEESB_SB_Li0EEENS_4pairIT0_T2_EESD_T1_SE_, symObjAddr: 0x2E0D8, symBinAddr: 0x100031D9C, symSize: 0x880 }
  - { offsetInCU: 0xC3F3, offset: 0xC3F3, size: 0x8, addend: 0x0, symName: __ZNSt3__114__unwrap_rangeB8ue170006INS_16reverse_iteratorIPN6Market6TraderEEES5_EENS_4pairIT0_S7_EET_S9_, symObjAddr: 0x2E958, symBinAddr: 0x10003261C, symSize: 0x448 }
  - { offsetInCU: 0xC5B5, offset: 0xC5B5, size: 0x8, addend: 0x0, symName: __ZNSt3__113__unwrap_iterB8ue170006INS_16reverse_iteratorIPN6Market6TraderEEENS_18__unwrap_iter_implIS5_Lb0EEELi0EEEDTclsrT0_8__unwrapclsr3stdE7declvalIT_EEEES9_, symObjAddr: 0x2F110, symBinAddr: 0x100032DD4, symSize: 0x2EC }
  - { offsetInCU: 0xC5FD, offset: 0xC5FD, size: 0x8, addend: 0x0, symName: __ZNSt3__19make_pairB8ue170006INS_16reverse_iteratorIPN6Market6TraderEEES5_EENS_4pairINS_18__unwrap_ref_decayIT_E4typeENS7_IT0_E4typeEEEOS8_OSB_, symObjAddr: 0x2F3FC, symBinAddr: 0x1000330C0, symSize: 0x108 }
  - { offsetInCU: 0xC64C, offset: 0xC64C, size: 0x8, addend: 0x0, symName: __ZNSt3__114__rewrap_rangeB8ue170006INS_16reverse_iteratorIPN6Market6TraderEEES5_EET_S6_T0_, symObjAddr: 0x2F504, symBinAddr: 0x1000331C8, symSize: 0x3D4 }
  - { offsetInCU: 0xC6A0, offset: 0xC6A0, size: 0x8, addend: 0x0, symName: __ZNSt3__113__rewrap_iterB8ue170006INS_16reverse_iteratorIPN6Market6TraderEEES5_NS_18__unwrap_iter_implIS5_Lb0EEEEET_S8_T0_, symObjAddr: 0x2F8D8, symBinAddr: 0x10003359C, symSize: 0x3E8 }
  - { offsetInCU: 0xC6FD, offset: 0xC6FD, size: 0x8, addend: 0x0, symName: __ZNSt3__1neB8ue170006IPN6Market6TraderES3_EEbRKNS_16reverse_iteratorIT_EERKNS4_IT0_EE, symObjAddr: 0x2FCC0, symBinAddr: 0x100033984, symSize: 0x9C }
  - { offsetInCU: 0xC861, offset: 0xC861, size: 0x8, addend: 0x0, symName: __ZNSt3__119__libcpp_deallocateB8ue170006EPvmm, symObjAddr: 0x30FF8, symBinAddr: 0x100034CBC, symSize: 0x60 }
  - { offsetInCU: 0xC8C6, offset: 0xC8C6, size: 0x8, addend: 0x0, symName: __ZNSt3__127__do_deallocate_handle_sizeB8ue170006IJSt11align_val_tEEEvPvmDpT_, symObjAddr: 0x31058, symBinAddr: 0x100034D1C, symSize: 0x30 }
  - { offsetInCU: 0xC919, offset: 0xC919, size: 0x8, addend: 0x0, symName: __ZNSt3__127__do_deallocate_handle_sizeB8ue170006IJEEEvPvmDpT_, symObjAddr: 0x31088, symBinAddr: 0x100034D4C, symSize: 0x28 }
  - { offsetInCU: 0xC957, offset: 0xC957, size: 0x8, addend: 0x0, symName: __ZNSt3__124__libcpp_operator_deleteB8ue170006IJPvSt11align_val_tEEEvDpT_, symObjAddr: 0x310B0, symBinAddr: 0x100034D74, symSize: 0x2C }
  - { offsetInCU: 0xC9A0, offset: 0xC9A0, size: 0x8, addend: 0x0, symName: __ZNSt3__124__libcpp_operator_deleteB8ue170006IJPvEEEvDpT_, symObjAddr: 0x310DC, symBinAddr: 0x100034DA0, symSize: 0x24 }
  - { offsetInCU: 0xC9D5, offset: 0xC9D5, size: 0x8, addend: 0x0, symName: __ZNSt3__112__to_addressB8ue170006IN6Market5StockEEEPT_S4_, symObjAddr: 0x33794, symBinAddr: 0x100037458, symSize: 0x14 }
  - { offsetInCU: 0xCA0A, offset: 0xCA0A, size: 0x8, addend: 0x0, symName: __ZNSt3__119__allocate_at_leastB8ue170006INS_9allocatorIN6Market5StockEEEEENS_19__allocation_resultINS_16allocator_traitsIT_E7pointerEEERS7_m, symObjAddr: 0x36A5C, symBinAddr: 0x10003A720, symSize: 0x28C }
  - { offsetInCU: 0xCA4F, offset: 0xCA4F, size: 0x8, addend: 0x0, symName: __ZNSt3__142__uninitialized_allocator_move_if_noexceptB8ue170006INS_9allocatorIN6Market5StockEEENS_16reverse_iteratorIPS3_EES7_S7_EET2_RT_T0_T1_S8_, symObjAddr: 0x37E54, symBinAddr: 0x10003BB18, symSize: 0x5D8 }
  - { offsetInCU: 0xCB04, offset: 0xCB04, size: 0x8, addend: 0x0, symName: __ZNSt3__14swapB8ue170006IPN6Market5StockEEENS_9enable_ifIXaasr21is_move_constructibleIT_EE5valuesr18is_move_assignableIS5_EE5valueEvE4typeERS5_S8_, symObjAddr: 0x3855C, symBinAddr: 0x10003C220, symSize: 0x1C0 }
  - { offsetInCU: 0xCB55, offset: 0xCB55, size: 0x8, addend: 0x0, symName: __ZNSt3__122__make_exception_guardB8ue170006INS_29_AllocatorDestroyRangeReverseINS_9allocatorIN6Market5StockEEENS_16reverse_iteratorIPS4_EEEEEENS_28__exception_guard_exceptionsIT_EESB_, symObjAddr: 0x38A94, symBinAddr: 0x10003C758, symSize: 0x23C }
  - { offsetInCU: 0xCB8C, offset: 0xCB8C, size: 0x8, addend: 0x0, symName: __ZNSt3__1neB8ue170006IPN6Market5StockES3_EEbRKNS_16reverse_iteratorIT_EERKNS4_IT0_EE, symObjAddr: 0x38D60, symBinAddr: 0x10003CA24, symSize: 0x9C }
  - { offsetInCU: 0xCBD8, offset: 0xCBD8, size: 0x8, addend: 0x0, symName: __ZNSt3__112__to_addressB8ue170006INS_16reverse_iteratorIPN6Market5StockEEEvEEu7__decayIDTclsr19__to_address_helperIT_EE6__callclsr3stdE7declvalIRKS6_EEEEES8_, symObjAddr: 0x38E88, symBinAddr: 0x10003CB4C, symSize: 0x6C }
  - { offsetInCU: 0xCC37, offset: 0xCC37, size: 0x8, addend: 0x0, symName: __ZNSt3__119__allocator_destroyB8ue170006INS_9allocatorIN6Market5StockEEENS_16reverse_iteratorINS5_IPS3_EEEES8_EEvRT_T0_T1_, symObjAddr: 0x3B2B8, symBinAddr: 0x10003EF7C, symSize: 0x1A4 }
  - { offsetInCU: 0xCC9C, offset: 0xCC9C, size: 0x8, addend: 0x0, symName: __ZNSt3__1neB8ue170006INS_16reverse_iteratorIPN6Market5StockEEES5_EEbRKNS1_IT_EERKNS1_IT0_EE, symObjAddr: 0x3B6F8, symBinAddr: 0x10003F3BC, symSize: 0x324 }
  - { offsetInCU: 0xCCEA, offset: 0xCCEA, size: 0x8, addend: 0x0, symName: __ZNSt3__112__to_addressB8ue170006INS_16reverse_iteratorINS1_IPN6Market5StockEEEEEvEEu7__decayIDTclsr19__to_address_helperIT_EE6__callclsr3stdE7declvalIRKS7_EEEEES9_, symObjAddr: 0x3BA48, symBinAddr: 0x10003F70C, symSize: 0x6C }
  - { offsetInCU: 0xCD20, offset: 0xCD20, size: 0x8, addend: 0x0, symName: __ZNSt3__112__to_addressB8ue170006IN6Market10TradeOrderEEEPT_S4_, symObjAddr: 0x3D1A0, symBinAddr: 0x100040E64, symSize: 0x14 }
  - { offsetInCU: 0xCD7E, offset: 0xCD7E, size: 0x8, addend: 0x0, symName: __ZNSt3__19push_heapB8ue170006INS_11__wrap_iterIPN6Market10TradeOrderEEENS2_5Stock13sellerCompareEEEvT_S8_T0_, symObjAddr: 0x40630, symBinAddr: 0x1000442F4, symSize: 0x36C }
  - { offsetInCU: 0xCDE0, offset: 0xCDE0, size: 0x8, addend: 0x0, symName: __ZNSt3__119__allocate_at_leastB8ue170006INS_9allocatorIN6Market10TradeOrderEEEEENS_19__allocation_resultINS_16allocator_traitsIT_E7pointerEEERS7_m, symObjAddr: 0x44870, symBinAddr: 0x100048534, symSize: 0x28C }
  - { offsetInCU: 0xCE25, offset: 0xCE25, size: 0x8, addend: 0x0, symName: __ZNSt3__142__uninitialized_allocator_move_if_noexceptB8ue170006INS_9allocatorIN6Market10TradeOrderEEENS_16reverse_iteratorIPS3_EES7_S3_vEET1_RT_T0_SB_S8_, symObjAddr: 0x4533C, symBinAddr: 0x100049000, symSize: 0x4A8 }
  - { offsetInCU: 0xCEAF, offset: 0xCEAF, size: 0x8, addend: 0x0, symName: __ZNSt3__14swapB8ue170006IPN6Market10TradeOrderEEENS_9enable_ifIXaasr21is_move_constructibleIT_EE5valuesr18is_move_assignableIS5_EE5valueEvE4typeERS5_S8_, symObjAddr: 0x45914, symBinAddr: 0x1000495D8, symSize: 0x1C0 }
  - { offsetInCU: 0xCF00, offset: 0xCF00, size: 0x8, addend: 0x0, symName: __ZNSt3__14moveB8ue170006INS_16reverse_iteratorIPN6Market10TradeOrderEEES5_EET0_T_S7_S6_, symObjAddr: 0x45E34, symBinAddr: 0x100049AF8, symSize: 0x4B0 }
  - { offsetInCU: 0xCF67, offset: 0xCF67, size: 0x8, addend: 0x0, symName: __ZNSt3__16__moveB8ue170006INS_17_ClassicAlgPolicyENS_16reverse_iteratorIPN6Market10TradeOrderEEES6_S6_EENS_4pairIT0_T2_EES8_T1_S9_, symObjAddr: 0x462E4, symBinAddr: 0x100049FA8, symSize: 0x424 }
  - { offsetInCU: 0xCFDF, offset: 0xCFDF, size: 0x8, addend: 0x0, symName: __ZNSt3__123__dispatch_copy_or_moveB8ue170006INS_17_ClassicAlgPolicyENS_11__move_loopIS1_EENS_14__move_trivialENS_16reverse_iteratorIPN6Market10TradeOrderEEES9_S9_EENS_4pairIT2_T4_EESB_T3_SC_, symObjAddr: 0x46708, symBinAddr: 0x10004A3CC, symSize: 0x424 }
  - { offsetInCU: 0xD069, offset: 0xD069, size: 0x8, addend: 0x0, symName: __ZNSt3__121__unwrap_and_dispatchB8ue170006INS_10__overloadINS_11__move_loopINS_17_ClassicAlgPolicyEEENS_14__move_trivialEEENS_16reverse_iteratorIPN6Market10TradeOrderEEESB_SB_Li0EEENS_4pairIT0_T2_EESD_T1_SE_, symObjAddr: 0x46B2C, symBinAddr: 0x10004A7F0, symSize: 0x880 }
  - { offsetInCU: 0xD10D, offset: 0xD10D, size: 0x8, addend: 0x0, symName: __ZNSt3__114__unwrap_rangeB8ue170006INS_16reverse_iteratorIPN6Market10TradeOrderEEES5_EENS_4pairIT0_S7_EET_S9_, symObjAddr: 0x473AC, symBinAddr: 0x10004B070, symSize: 0x448 }
  - { offsetInCU: 0xD235, offset: 0xD235, size: 0x8, addend: 0x0, symName: __ZNSt3__113__unwrap_iterB8ue170006INS_16reverse_iteratorIPN6Market10TradeOrderEEENS_18__unwrap_iter_implIS5_Lb0EEELi0EEEDTclsrT0_8__unwrapclsr3stdE7declvalIT_EEEES9_, symObjAddr: 0x47B64, symBinAddr: 0x10004B828, symSize: 0x2EC }
  - { offsetInCU: 0xD27D, offset: 0xD27D, size: 0x8, addend: 0x0, symName: __ZNSt3__19make_pairB8ue170006INS_16reverse_iteratorIPN6Market10TradeOrderEEES5_EENS_4pairINS_18__unwrap_ref_decayIT_E4typeENS7_IT0_E4typeEEEOS8_OSB_, symObjAddr: 0x47E50, symBinAddr: 0x10004BB14, symSize: 0x108 }
  - { offsetInCU: 0xD2CC, offset: 0xD2CC, size: 0x8, addend: 0x0, symName: __ZNSt3__114__rewrap_rangeB8ue170006INS_16reverse_iteratorIPN6Market10TradeOrderEEES5_EET_S6_T0_, symObjAddr: 0x47F58, symBinAddr: 0x10004BC1C, symSize: 0x3D4 }
  - { offsetInCU: 0xD320, offset: 0xD320, size: 0x8, addend: 0x0, symName: __ZNSt3__113__rewrap_iterB8ue170006INS_16reverse_iteratorIPN6Market10TradeOrderEEES5_NS_18__unwrap_iter_implIS5_Lb0EEEEET_S8_T0_, symObjAddr: 0x4832C, symBinAddr: 0x10004BFF0, symSize: 0x3E8 }
  - { offsetInCU: 0xD37D, offset: 0xD37D, size: 0x8, addend: 0x0, symName: __ZNSt3__1neB8ue170006IPN6Market10TradeOrderES3_EEbRKNS_16reverse_iteratorIT_EERKNS4_IT0_EE, symObjAddr: 0x48714, symBinAddr: 0x10004C3D8, symSize: 0x9C }
  - { offsetInCU: 0xD435, offset: 0xD435, size: 0x8, addend: 0x0, symName: __ZNSt3__111__push_heapB8ue170006INS_17_ClassicAlgPolicyENS_11__wrap_iterIPN6Market10TradeOrderEEENS3_5Stock13sellerCompareEEEvT0_S9_RT1_, symObjAddr: 0x49B48, symBinAddr: 0x10004D80C, symSize: 0x3A0 }
  - { offsetInCU: 0xD4AC, offset: 0xD4AC, size: 0x8, addend: 0x0, symName: __ZNSt3__1miB8ue170006IPN6Market10TradeOrderES3_EEDTmicldtfp_4baseEcldtfp0_4baseEERKNS_11__wrap_iterIT_EERKNS5_IT0_EE, symObjAddr: 0x49EE8, symBinAddr: 0x10004DBAC, symSize: 0x9C }
  - { offsetInCU: 0xD4F8, offset: 0xD4F8, size: 0x8, addend: 0x0, symName: __ZNSt3__19__sift_upB8ue170006INS_17_ClassicAlgPolicyERN6Market5Stock13sellerCompareENS_11__wrap_iterIPNS2_10TradeOrderEEEEEvT1_SA_OT0_NS_15iterator_traitsISA_E15difference_typeE, symObjAddr: 0x49F84, symBinAddr: 0x10004DC48, symSize: 0x74C }
  - { offsetInCU: 0xD5AB, offset: 0xD5AB, size: 0x8, addend: 0x0, symName: __ZNSt3__18pop_heapB8ue170006INS_11__wrap_iterIPN6Market10TradeOrderEEENS2_5Stock12buyerCompareEEEvT_S8_T0_, symObjAddr: 0x4B928, symBinAddr: 0x10004F5EC, symSize: 0x388 }
  - { offsetInCU: 0xD61C, offset: 0xD61C, size: 0x8, addend: 0x0, symName: __ZNSt3__110__pop_heapB8ue170006INS_17_ClassicAlgPolicyEN6Market5Stock12buyerCompareENS_11__wrap_iterIPNS2_10TradeOrderEEEEEvT1_S9_RT0_NS_15iterator_traitsIS9_E15difference_typeE, symObjAddr: 0x4BE00, symBinAddr: 0x10004FAC4, symSize: 0x5D0 }
  - { offsetInCU: 0xD6D8, offset: 0xD6D8, size: 0x8, addend: 0x0, symName: __ZNSt3__1eqB8ue170006IPN6Market10TradeOrderEEEbRKNS_11__wrap_iterIT_EES8_, symObjAddr: 0x4CA90, symBinAddr: 0x100050754, symSize: 0x9C }
  - { offsetInCU: 0xD71B, offset: 0xD71B, size: 0x8, addend: 0x0, symName: __ZNSt3__19__sift_upB8ue170006INS_17_ClassicAlgPolicyERN6Market5Stock12buyerCompareENS_11__wrap_iterIPNS2_10TradeOrderEEEEEvT1_SA_OT0_NS_15iterator_traitsISA_E15difference_typeE, symObjAddr: 0x4CCD4, symBinAddr: 0x100050998, symSize: 0x74C }
  - { offsetInCU: 0xD7CE, offset: 0xD7CE, size: 0x8, addend: 0x0, symName: __ZNSt3__18pop_heapB8ue170006INS_11__wrap_iterIPN6Market10TradeOrderEEENS2_5Stock13sellerCompareEEEvT_S8_T0_, symObjAddr: 0x4D90C, symBinAddr: 0x1000515D0, symSize: 0x388 }
  - { offsetInCU: 0xD83F, offset: 0xD83F, size: 0x8, addend: 0x0, symName: __ZNSt3__110__pop_heapB8ue170006INS_17_ClassicAlgPolicyEN6Market5Stock13sellerCompareENS_11__wrap_iterIPNS2_10TradeOrderEEEEEvT1_S9_RT0_NS_15iterator_traitsIS9_E15difference_typeE, symObjAddr: 0x4DC94, symBinAddr: 0x100051958, symSize: 0x5D0 }
  - { offsetInCU: 0xD8FB, offset: 0xD8FB, size: 0x8, addend: 0x0, symName: __ZNSt3__19push_heapB8ue170006INS_11__wrap_iterIPN6Market10TradeOrderEEENS2_5Stock12buyerCompareEEEvT_S8_T0_, symObjAddr: 0x4E924, symBinAddr: 0x1000525E8, symSize: 0x36C }
  - { offsetInCU: 0xD95D, offset: 0xD95D, size: 0x8, addend: 0x0, symName: __ZNSt3__111__push_heapB8ue170006INS_17_ClassicAlgPolicyENS_11__wrap_iterIPN6Market10TradeOrderEEENS3_5Stock12buyerCompareEEEvT0_S9_RT1_, symObjAddr: 0x4EC90, symBinAddr: 0x100052954, symSize: 0x3A0 }
  - { offsetInCU: 0xDD99, offset: 0xDD99, size: 0x8, addend: 0x0, symName: __ZSt28__throw_bad_array_new_lengthB8ue170006v, symObjAddr: 0x2BB10, symBinAddr: 0x10002F7D4, symSize: 0x7C }
  - { offsetInCU: 0xE249, offset: 0xE249, size: 0x8, addend: 0x0, symName: __ZN8P2random7PR_initERNSt3__118basic_stringstreamIcNS0_11char_traitsIcEENS0_9allocatorIcEEEEjjjjj, symObjAddr: 0x1F1E4, symBinAddr: 0x100022EA8, symSize: 0xA6C }
  - { offsetInCU: 0xE269, offset: 0xE269, size: 0x8, addend: 0x0, symName: __ZZN8P2random7PR_initERNSt3__118basic_stringstreamIcNS0_11char_traitsIcEENS0_9allocatorIcEEEEjjjjjE3rng, symObjAddr: 0x5FEF0, symBinAddr: 0x1000742D0, symSize: 0x0 }
  - { offsetInCU: 0xE383, offset: 0xE383, size: 0x8, addend: 0x0, symName: _.str.68, symObjAddr: 0x68080, symBinAddr: 0x10005C680, symSize: 0x0 }
  - { offsetInCU: 0xE3A0, offset: 0xE3A0, size: 0x8, addend: 0x0, symName: _.str.69, symObjAddr: 0x680A0, symBinAddr: 0x10005C6A0, symSize: 0x0 }
  - { offsetInCU: 0xE3B1, offset: 0xE3B1, size: 0x8, addend: 0x0, symName: _.str.70, symObjAddr: 0x680C0, symBinAddr: 0x10005C6C0, symSize: 0x0 }
  - { offsetInCU: 0xE3C2, offset: 0xE3C2, size: 0x8, addend: 0x0, symName: _.str.71, symObjAddr: 0x680E0, symBinAddr: 0x10005C6E0, symSize: 0x0 }
  - { offsetInCU: 0xE3D3, offset: 0xE3D3, size: 0x8, addend: 0x0, symName: _.str.72, symObjAddr: 0x68100, symBinAddr: 0x10005C700, symSize: 0x0 }
  - { offsetInCU: 0xE3E4, offset: 0xE3E4, size: 0x8, addend: 0x0, symName: _.str.73, symObjAddr: 0x68120, symBinAddr: 0x10005C720, symSize: 0x0 }
  - { offsetInCU: 0xE3F5, offset: 0xE3F5, size: 0x8, addend: 0x0, symName: _.str.74, symObjAddr: 0x68140, symBinAddr: 0x10005C740, symSize: 0x0 }
  - { offsetInCU: 0xEC35, offset: 0xEC35, size: 0x8, addend: 0x0, symName: __ZNSt3__16vectorIN6Market6TraderENS_9allocatorIS2_EEE26__swap_out_circular_bufferERNS_14__split_bufferIS2_RS4_EE, symObjAddr: 0x27648, symBinAddr: 0x10002B30C, symSize: 0x85C }
  - { offsetInCU: 0xEC8E, offset: 0xEC8E, size: 0x8, addend: 0x0, symName: __ZNSt3__16vectorIN6Market5StockENS_9allocatorIS2_EEE26__swap_out_circular_bufferERNS_14__split_bufferIS2_RS4_EE, symObjAddr: 0x32C3C, symBinAddr: 0x100036900, symSize: 0x85C }
  - { offsetInCU: 0xED29, offset: 0xED29, size: 0x8, addend: 0x0, symName: __ZNSt3__16vectorIN6Market10TradeOrderENS_9allocatorIS2_EEE26__swap_out_circular_bufferERNS_14__split_bufferIS2_RS4_EE, symObjAddr: 0x43034, symBinAddr: 0x100046CF8, symSize: 0x85C }
  - { offsetInCU: 0x111B4, offset: 0x111B4, size: 0x8, addend: 0x0, symName: _main, symObjAddr: 0x0, symBinAddr: 0x100003CC4, symSize: 0x230 }
  - { offsetInCU: 0x111ED, offset: 0x111ED, size: 0x8, addend: 0x0, symName: __ZN6MarketC1EiPPc, symObjAddr: 0x230, symBinAddr: 0x100003EF4, symSize: 0x88 }
  - { offsetInCU: 0x11233, offset: 0x11233, size: 0x8, addend: 0x0, symName: __ZN6MarketD1Ev, symObjAddr: 0x2B8, symBinAddr: 0x100003F7C, symSize: 0x78 }
  - { offsetInCU: 0x1125F, offset: 0x1125F, size: 0x8, addend: 0x0, symName: __ZN6MarketC2EiPPc, symObjAddr: 0x330, symBinAddr: 0x100003FF4, symSize: 0x3E0 }
  - { offsetInCU: 0x112A5, offset: 0x112A5, size: 0x8, addend: 0x0, symName: __ZNSt3__16vectorIN6Market5StockENS_9allocatorIS2_EEEC1B8ue170006Ev, symObjAddr: 0x710, symBinAddr: 0x1000043D4, symSize: 0x78 }
  - { offsetInCU: 0x112CF, offset: 0x112CF, size: 0x8, addend: 0x0, symName: __ZNSt3__16vectorIN6Market6TraderENS_9allocatorIS2_EEEC1B8ue170006Ev, symObjAddr: 0x788, symBinAddr: 0x10000444C, symSize: 0x78 }
  - { offsetInCU: 0x112F9, offset: 0x112F9, size: 0x8, addend: 0x0, symName: __ZN6Market7getModeEiPPc, symObjAddr: 0x800, symBinAddr: 0x1000044C4, symSize: 0x690 }
  - { offsetInCU: 0x11376, offset: 0x11376, size: 0x8, addend: 0x0, symName: __ZN6Market9readInputEv, symObjAddr: 0xED0, symBinAddr: 0x100004B94, symSize: 0x16000 }
  - { offsetInCU: 0x11678, offset: 0x11678, size: 0x8, addend: 0x0, symName: __ZNSt3__16vectorIN6Market6TraderENS_9allocatorIS2_EEED1B8ue170006Ev, symObjAddr: 0x16ED0, symBinAddr: 0x10001AB94, symSize: 0x78 }
  - { offsetInCU: 0x116A2, offset: 0x116A2, size: 0x8, addend: 0x0, symName: __ZNSt3__16vectorIN6Market5StockENS_9allocatorIS2_EEED1B8ue170006Ev, symObjAddr: 0x16F48, symBinAddr: 0x10001AC0C, symSize: 0x78 }
  - { offsetInCU: 0x116CC, offset: 0x116CC, size: 0x8, addend: 0x0, symName: __ZNSt3__16vectorIN6Market5StockENS_9allocatorIS2_EEEC2B8ue170006Ev, symObjAddr: 0x16FC0, symBinAddr: 0x10001AC84, symSize: 0x340 }
  - { offsetInCU: 0x11703, offset: 0x11703, size: 0x8, addend: 0x0, symName: __ZNSt3__117__compressed_pairIPN6Market5StockENS_9allocatorIS2_EEEC1B8ue170006IDnNS_18__default_init_tagEEEOT_OT0_, symObjAddr: 0x17300, symBinAddr: 0x10001AFC4, symSize: 0x88 }
  - { offsetInCU: 0x1175B, offset: 0x1175B, size: 0x8, addend: 0x0, symName: __ZNSt3__117__compressed_pairIPN6Market5StockENS_9allocatorIS2_EEEC2B8ue170006IDnNS_18__default_init_tagEEEOT_OT0_, symObjAddr: 0x17394, symBinAddr: 0x10001B058, symSize: 0x140 }
  - { offsetInCU: 0x117B3, offset: 0x117B3, size: 0x8, addend: 0x0, symName: __ZNSt3__122__compressed_pair_elemIPN6Market5StockELi0ELb0EEC2B8ue170006IDnvEEOT_, symObjAddr: 0x174D4, symBinAddr: 0x10001B198, symSize: 0xBC }
  - { offsetInCU: 0x117F5, offset: 0x117F5, size: 0x8, addend: 0x0, symName: __ZNSt3__122__compressed_pair_elemINS_9allocatorIN6Market5StockEEELi1ELb1EEC2B8ue170006ENS_18__default_init_tagE, symObjAddr: 0x17590, symBinAddr: 0x10001B254, symSize: 0x84 }
  - { offsetInCU: 0x1182A, offset: 0x1182A, size: 0x8, addend: 0x0, symName: __ZNSt3__19allocatorIN6Market5StockEEC2B8ue170006Ev, symObjAddr: 0x17614, symBinAddr: 0x10001B2D8, symSize: 0x84 }
  - { offsetInCU: 0x11854, offset: 0x11854, size: 0x8, addend: 0x0, symName: __ZNSt3__116__non_trivial_ifILb1ENS_9allocatorIN6Market5StockEEEEC2B8ue170006Ev, symObjAddr: 0x17698, symBinAddr: 0x10001B35C, symSize: 0x54 }
  - { offsetInCU: 0x1187E, offset: 0x1187E, size: 0x8, addend: 0x0, symName: __ZNSt3__16vectorIN6Market6TraderENS_9allocatorIS2_EEEC2B8ue170006Ev, symObjAddr: 0x176EC, symBinAddr: 0x10001B3B0, symSize: 0x340 }
  - { offsetInCU: 0x118A9, offset: 0x118A9, size: 0x8, addend: 0x0, symName: __ZNSt3__117__compressed_pairIPN6Market6TraderENS_9allocatorIS2_EEEC1B8ue170006IDnNS_18__default_init_tagEEEOT_OT0_, symObjAddr: 0x17A2C, symBinAddr: 0x10001B6F0, symSize: 0x88 }
  - { offsetInCU: 0x11901, offset: 0x11901, size: 0x8, addend: 0x0, symName: __ZNSt3__117__compressed_pairIPN6Market6TraderENS_9allocatorIS2_EEEC2B8ue170006IDnNS_18__default_init_tagEEEOT_OT0_, symObjAddr: 0x17AB4, symBinAddr: 0x10001B778, symSize: 0x140 }
  - { offsetInCU: 0x11959, offset: 0x11959, size: 0x8, addend: 0x0, symName: __ZNSt3__122__compressed_pair_elemIPN6Market6TraderELi0ELb0EEC2B8ue170006IDnvEEOT_, symObjAddr: 0x17BF4, symBinAddr: 0x10001B8B8, symSize: 0xBC }
  - { offsetInCU: 0x1199B, offset: 0x1199B, size: 0x8, addend: 0x0, symName: __ZNSt3__122__compressed_pair_elemINS_9allocatorIN6Market6TraderEEELi1ELb1EEC2B8ue170006ENS_18__default_init_tagE, symObjAddr: 0x17CB0, symBinAddr: 0x10001B974, symSize: 0x84 }
  - { offsetInCU: 0x119D0, offset: 0x119D0, size: 0x8, addend: 0x0, symName: __ZNSt3__19allocatorIN6Market6TraderEEC2B8ue170006Ev, symObjAddr: 0x17D34, symBinAddr: 0x10001B9F8, symSize: 0x84 }
  - { offsetInCU: 0x119FA, offset: 0x119FA, size: 0x8, addend: 0x0, symName: __ZNSt3__116__non_trivial_ifILb1ENS_9allocatorIN6Market6TraderEEEEC2B8ue170006Ev, symObjAddr: 0x17DB8, symBinAddr: 0x10001BA7C, symSize: 0x54 }
  - { offsetInCU: 0x11A24, offset: 0x11A24, size: 0x8, addend: 0x0, symName: __ZNSt3__113basic_ostreamIcNS_11char_traitsIcEEElsB8ue170006EPFRS3_S4_E, symObjAddr: 0x17EDC, symBinAddr: 0x10001BBA0, symSize: 0x108 }
  - { offsetInCU: 0x11A58, offset: 0x11A58, size: 0x8, addend: 0x0, symName: __ZNSt3__111char_traitsIcE6lengthB8ue170006EPKc, symObjAddr: 0x193F8, symBinAddr: 0x10001D0BC, symSize: 0x40 }
  - { offsetInCU: 0x11A99, offset: 0x11A99, size: 0x8, addend: 0x0, symName: __ZNKSt3__113basic_ostreamIcNS_11char_traitsIcEEE6sentrycvbB8ue170006Ev, symObjAddr: 0x19438, symBinAddr: 0x10001D0FC, symSize: 0x104 }
  - { offsetInCU: 0x11ABF, offset: 0x11ABF, size: 0x8, addend: 0x0, symName: __ZNSt3__119ostreambuf_iteratorIcNS_11char_traitsIcEEEC1B8ue170006ERNS_13basic_ostreamIcS2_EE, symObjAddr: 0x1A0C4, symBinAddr: 0x10001DD88, symSize: 0x80 }
  - { offsetInCU: 0x11AF7, offset: 0x11AF7, size: 0x8, addend: 0x0, symName: __ZNKSt3__18ios_base5flagsB8ue170006Ev, symObjAddr: 0x1A144, symBinAddr: 0x10001DE08, symSize: 0x160 }
  - { offsetInCU: 0x11B1F, offset: 0x11B1F, size: 0x8, addend: 0x0, symName: __ZNKSt3__19basic_iosIcNS_11char_traitsIcEEE4fillB8ue170006Ev, symObjAddr: 0x1A2A4, symBinAddr: 0x10001DF68, symSize: 0x39C }
  - { offsetInCU: 0x11B47, offset: 0x11B47, size: 0x8, addend: 0x0, symName: __ZNKSt3__119ostreambuf_iteratorIcNS_11char_traitsIcEEE6failedB8ue170006Ev, symObjAddr: 0x1A640, symBinAddr: 0x10001E304, symSize: 0xB8 }
  - { offsetInCU: 0x11B6D, offset: 0x11B6D, size: 0x8, addend: 0x0, symName: __ZNSt3__19basic_iosIcNS_11char_traitsIcEEE8setstateB8ue170006Ej, symObjAddr: 0x1A6F8, symBinAddr: 0x10001E3BC, symSize: 0x128 }
  - { offsetInCU: 0x11BA2, offset: 0x11BA2, size: 0x8, addend: 0x0, symName: __ZNKSt3__18ios_base5widthB8ue170006Ev, symObjAddr: 0x1A820, symBinAddr: 0x10001E4E4, symSize: 0x138 }
  - { offsetInCU: 0x11BCA, offset: 0x11BCA, size: 0x8, addend: 0x0, symName: __ZNSt3__115basic_streambufIcNS_11char_traitsIcEEE5sputnB8ue170006EPKcl, symObjAddr: 0x1A958, symBinAddr: 0x10001E61C, symSize: 0x198 }
  - { offsetInCU: 0x11C0C, offset: 0x11C0C, size: 0x8, addend: 0x0, symName: __ZNSt3__112basic_stringIcNS_11char_traitsIcEENS_9allocatorIcEEEC1B8ue170006Emc, symObjAddr: 0x1AAF0, symBinAddr: 0x10001E7B4, symSize: 0x88 }
  - { offsetInCU: 0x11C54, offset: 0x11C54, size: 0x8, addend: 0x0, symName: __ZNSt3__112basic_stringIcNS_11char_traitsIcEENS_9allocatorIcEEE4dataB8ue170006Ev, symObjAddr: 0x1AB78, symBinAddr: 0x10001E83C, symSize: 0x70 }
  - { offsetInCU: 0x11C7A, offset: 0x11C7A, size: 0x8, addend: 0x0, symName: __ZNSt3__18ios_base5widthB8ue170006El, symObjAddr: 0x1ABE8, symBinAddr: 0x10001E8AC, symSize: 0x1F8 }
  - { offsetInCU: 0x11CC0, offset: 0x11CC0, size: 0x8, addend: 0x0, symName: __ZNSt3__112basic_stringIcNS_11char_traitsIcEENS_9allocatorIcEEEC2B8ue170006Emc, symObjAddr: 0x1ADE0, symBinAddr: 0x10001EAA4, symSize: 0x26C }
  - { offsetInCU: 0x11D0B, offset: 0x11D0B, size: 0x8, addend: 0x0, symName: __ZNSt3__117__compressed_pairINS_12basic_stringIcNS_11char_traitsIcEENS_9allocatorIcEEE5__repES5_EC1B8ue170006INS_18__default_init_tagESA_EEOT_OT0_, symObjAddr: 0x1B04C, symBinAddr: 0x10001ED10, symSize: 0x88 }
  - { offsetInCU: 0x11D63, offset: 0x11D63, size: 0x8, addend: 0x0, symName: __ZNSt3__117__compressed_pairINS_12basic_stringIcNS_11char_traitsIcEENS_9allocatorIcEEE5__repES5_EC2B8ue170006INS_18__default_init_tagESA_EEOT_OT0_, symObjAddr: 0x1B0D4, symBinAddr: 0x10001ED98, symSize: 0xF4 }
  - { offsetInCU: 0x11DBB, offset: 0x11DBB, size: 0x8, addend: 0x0, symName: __ZNSt3__122__compressed_pair_elemINS_12basic_stringIcNS_11char_traitsIcEENS_9allocatorIcEEE5__repELi0ELb0EEC2B8ue170006ENS_18__default_init_tagE, symObjAddr: 0x1B1C8, symBinAddr: 0x10001EE8C, symSize: 0x6C }
  - { offsetInCU: 0x11DF0, offset: 0x11DF0, size: 0x8, addend: 0x0, symName: __ZNSt3__122__compressed_pair_elemINS_9allocatorIcEELi1ELb1EEC2B8ue170006ENS_18__default_init_tagE, symObjAddr: 0x1B234, symBinAddr: 0x10001EEF8, symSize: 0x84 }
  - { offsetInCU: 0x11E25, offset: 0x11E25, size: 0x8, addend: 0x0, symName: __ZNSt3__19allocatorIcEC2B8ue170006Ev, symObjAddr: 0x1B2B8, symBinAddr: 0x10001EF7C, symSize: 0x84 }
  - { offsetInCU: 0x11E4F, offset: 0x11E4F, size: 0x8, addend: 0x0, symName: __ZNSt3__116__non_trivial_ifILb1ENS_9allocatorIcEEEC2B8ue170006Ev, symObjAddr: 0x1B33C, symBinAddr: 0x10001F000, symSize: 0x54 }
  - { offsetInCU: 0x11E79, offset: 0x11E79, size: 0x8, addend: 0x0, symName: __ZNSt3__112basic_stringIcNS_11char_traitsIcEENS_9allocatorIcEEE13__get_pointerB8ue170006Ev, symObjAddr: 0x1B3A4, symBinAddr: 0x10001F068, symSize: 0x98 }
  - { offsetInCU: 0x11E9F, offset: 0x11E9F, size: 0x8, addend: 0x0, symName: __ZNKSt3__112basic_stringIcNS_11char_traitsIcEENS_9allocatorIcEEE9__is_longB8ue170006Ev, symObjAddr: 0x1B43C, symBinAddr: 0x10001F100, symSize: 0x1FC }
  - { offsetInCU: 0x11EC5, offset: 0x11EC5, size: 0x8, addend: 0x0, symName: __ZNSt3__112basic_stringIcNS_11char_traitsIcEENS_9allocatorIcEEE18__get_long_pointerB8ue170006Ev, symObjAddr: 0x1B638, symBinAddr: 0x10001F2FC, symSize: 0x208 }
  - { offsetInCU: 0x11EEB, offset: 0x11EEB, size: 0x8, addend: 0x0, symName: __ZNSt3__112basic_stringIcNS_11char_traitsIcEENS_9allocatorIcEEE19__get_short_pointerB8ue170006Ev, symObjAddr: 0x1B840, symBinAddr: 0x10001F504, symSize: 0x1CC }
  - { offsetInCU: 0x11F11, offset: 0x11F11, size: 0x8, addend: 0x0, symName: __ZNKSt3__117__compressed_pairINS_12basic_stringIcNS_11char_traitsIcEENS_9allocatorIcEEE5__repES5_E5firstB8ue170006Ev, symObjAddr: 0x1BA0C, symBinAddr: 0x10001F6D0, symSize: 0x124 }
  - { offsetInCU: 0x11F37, offset: 0x11F37, size: 0x8, addend: 0x0, symName: __ZNKSt3__122__compressed_pair_elemINS_12basic_stringIcNS_11char_traitsIcEENS_9allocatorIcEEE5__repELi0ELb0EE5__getB8ue170006Ev, symObjAddr: 0x1BB30, symBinAddr: 0x10001F7F4, symSize: 0xAC }
  - { offsetInCU: 0x11F5D, offset: 0x11F5D, size: 0x8, addend: 0x0, symName: __ZNSt3__117__compressed_pairINS_12basic_stringIcNS_11char_traitsIcEENS_9allocatorIcEEE5__repES5_E5firstB8ue170006Ev, symObjAddr: 0x1BBDC, symBinAddr: 0x10001F8A0, symSize: 0x124 }
  - { offsetInCU: 0x11F83, offset: 0x11F83, size: 0x8, addend: 0x0, symName: __ZNSt3__122__compressed_pair_elemINS_12basic_stringIcNS_11char_traitsIcEENS_9allocatorIcEEE5__repELi0ELb0EE5__getB8ue170006Ev, symObjAddr: 0x1BD00, symBinAddr: 0x10001F9C4, symSize: 0xAC }
  - { offsetInCU: 0x11FA9, offset: 0x11FA9, size: 0x8, addend: 0x0, symName: __ZNSt3__114pointer_traitsIPcE10pointer_toB8ue170006ERc, symObjAddr: 0x1BDAC, symBinAddr: 0x10001FA70, symSize: 0x14 }
  - { offsetInCU: 0x11FCC, offset: 0x11FCC, size: 0x8, addend: 0x0, symName: __ZNSt3__119ostreambuf_iteratorIcNS_11char_traitsIcEEEC2B8ue170006ERNS_13basic_ostreamIcS2_EE, symObjAddr: 0x1BDC0, symBinAddr: 0x10001FA84, symSize: 0x2E8 }
  - { offsetInCU: 0x12004, offset: 0x12004, size: 0x8, addend: 0x0, symName: __ZNKSt3__19basic_iosIcNS_11char_traitsIcEEE5rdbufB8ue170006Ev, symObjAddr: 0x1C0A8, symBinAddr: 0x10001FD6C, symSize: 0x120 }
  - { offsetInCU: 0x1202C, offset: 0x1202C, size: 0x8, addend: 0x0, symName: __ZNKSt3__18ios_base5rdbufB8ue170006Ev, symObjAddr: 0x1C1C8, symBinAddr: 0x10001FE8C, symSize: 0x138 }
  - { offsetInCU: 0x12052, offset: 0x12052, size: 0x8, addend: 0x0, symName: __ZNSt3__111char_traitsIcE11eq_int_typeB8ue170006Eii, symObjAddr: 0x1C300, symBinAddr: 0x10001FFC4, symSize: 0x28 }
  - { offsetInCU: 0x12085, offset: 0x12085, size: 0x8, addend: 0x0, symName: __ZNSt3__111char_traitsIcE3eofB8ue170006Ev, symObjAddr: 0x1C328, symBinAddr: 0x10001FFEC, symSize: 0x8 }
  - { offsetInCU: 0x12099, offset: 0x12099, size: 0x8, addend: 0x0, symName: __ZNKSt3__19basic_iosIcNS_11char_traitsIcEEE5widenB8ue170006Ec, symObjAddr: 0x1C330, symBinAddr: 0x10001FFF4, symSize: 0x47C }
  - { offsetInCU: 0x120FF, offset: 0x120FF, size: 0x8, addend: 0x0, symName: __ZNKSt3__15ctypeIcE5widenB8ue170006Ec, symObjAddr: 0x1C934, symBinAddr: 0x1000205F8, symSize: 0x18C }
  - { offsetInCU: 0x12134, offset: 0x12134, size: 0x8, addend: 0x0, symName: __ZNSt3__18ios_base8setstateB8ue170006Ej, symObjAddr: 0x1CAC0, symBinAddr: 0x100020784, symSize: 0x1E0 }
  - { offsetInCU: 0x1216B, offset: 0x1216B, size: 0x8, addend: 0x0, symName: __ZNSt3__112basic_stringIcNS_11char_traitsIcEENS_9allocatorIcEEEC1B8ue170006Ev, symObjAddr: 0x1CCC4, symBinAddr: 0x100020988, symSize: 0x78 }
  - { offsetInCU: 0x12195, offset: 0x12195, size: 0x8, addend: 0x0, symName: __ZNSt3__16vectorIN6Market6TraderENS_9allocatorIS2_EEE6resizeEm, symObjAddr: 0x1E8F0, symBinAddr: 0x1000225B4, symSize: 0x1F4 }
  - { offsetInCU: 0x121DB, offset: 0x121DB, size: 0x8, addend: 0x0, symName: __ZNSt3__16vectorIN6Market5StockENS_9allocatorIS2_EEE6resizeEm, symObjAddr: 0x1EAE4, symBinAddr: 0x1000227A8, symSize: 0x1F4 }
  - { offsetInCU: 0x12221, offset: 0x12221, size: 0x8, addend: 0x0, symName: __ZNSt3__118basic_stringstreamIcNS_11char_traitsIcEENS_9allocatorIcEEEC1B8ue170006Ev, symObjAddr: 0x1ECD8, symBinAddr: 0x10002299C, symSize: 0x3EC }
  - { offsetInCU: 0x1224B, offset: 0x1224B, size: 0x8, addend: 0x0, symName: __ZNKSt3__19basic_iosIcNS_11char_traitsIcEEEcvbB8ue170006Ev, symObjAddr: 0x20944, symBinAddr: 0x100024608, symSize: 0xFC }
  - { offsetInCU: 0x12271, offset: 0x12271, size: 0x8, addend: 0x0, symName: __ZNSt3__16vectorIN6Market6TraderENS_9allocatorIS2_EEEixB8ue170006Em, symObjAddr: 0x20A40, symBinAddr: 0x100024704, symSize: 0x1D4 }
  - { offsetInCU: 0x122A8, offset: 0x122A8, size: 0x8, addend: 0x0, symName: __ZNSt3__16vectorIN6Market5StockENS_9allocatorIS2_EEEixB8ue170006Em, symObjAddr: 0x20C14, symBinAddr: 0x1000248D8, symSize: 0x1D4 }
  - { offsetInCU: 0x122DF, offset: 0x122DF, size: 0x8, addend: 0x0, symName: __ZNSt3__114priority_queueIN6Market10TradeOrderENS_6vectorIS2_NS_9allocatorIS2_EEEENS1_5Stock13sellerCompareEE4pushERKS2_, symObjAddr: 0x20DE8, symBinAddr: 0x100024AAC, symSize: 0x468 }
  - { offsetInCU: 0x12318, offset: 0x12318, size: 0x8, addend: 0x0, symName: __ZNKSt3__114priority_queueIN6Market10TradeOrderENS_6vectorIS2_NS_9allocatorIS2_EEEENS1_5Stock13sellerCompareEE3topB8ue170006Ev, symObjAddr: 0x21250, symBinAddr: 0x100024F14, symSize: 0xF8 }
  - { offsetInCU: 0x1233E, offset: 0x1233E, size: 0x8, addend: 0x0, symName: __ZNKSt3__114priority_queueIN6Market10TradeOrderENS_6vectorIS2_NS_9allocatorIS2_EEEENS1_5Stock12buyerCompareEE5emptyB8ue170006Ev, symObjAddr: 0x21348, symBinAddr: 0x10002500C, symSize: 0xB4 }
  - { offsetInCU: 0x12364, offset: 0x12364, size: 0x8, addend: 0x0, symName: __ZNKSt3__114priority_queueIN6Market10TradeOrderENS_6vectorIS2_NS_9allocatorIS2_EEEENS1_5Stock12buyerCompareEE3topB8ue170006Ev, symObjAddr: 0x213FC, symBinAddr: 0x1000250C0, symSize: 0xF8 }
  - { offsetInCU: 0x1238A, offset: 0x1238A, size: 0x8, addend: 0x0, symName: __ZNSt3__114priority_queueIN6Market10TradeOrderENS_6vectorIS2_NS_9allocatorIS2_EEEENS1_5Stock12buyerCompareEE3popEv, symObjAddr: 0x214F4, symBinAddr: 0x1000251B8, symSize: 0x418 }
  - { offsetInCU: 0x123B3, offset: 0x123B3, size: 0x8, addend: 0x0, symName: __ZNSt3__114priority_queueIN6Market10TradeOrderENS_6vectorIS2_NS_9allocatorIS2_EEEENS1_5Stock13sellerCompareEE3popEv, symObjAddr: 0x2190C, symBinAddr: 0x1000255D0, symSize: 0x418 }
  - { offsetInCU: 0x123DC, offset: 0x123DC, size: 0x8, addend: 0x0, symName: __ZNSt3__114priority_queueIN6Market10TradeOrderENS_6vectorIS2_NS_9allocatorIS2_EEEENS1_5Stock12buyerCompareEE4pushERKS2_, symObjAddr: 0x21D24, symBinAddr: 0x1000259E8, symSize: 0x468 }
  - { offsetInCU: 0x12415, offset: 0x12415, size: 0x8, addend: 0x0, symName: __ZNKSt3__114priority_queueIN6Market10TradeOrderENS_6vectorIS2_NS_9allocatorIS2_EEEENS1_5Stock13sellerCompareEE5emptyB8ue170006Ev, symObjAddr: 0x2218C, symBinAddr: 0x100025E50, symSize: 0xB4 }
  - { offsetInCU: 0x1243B, offset: 0x1243B, size: 0x8, addend: 0x0, symName: __ZNKSt3__16vectorIN6Market6TraderENS_9allocatorIS2_EEE4sizeB8ue170006Ev, symObjAddr: 0x22240, symBinAddr: 0x100025F04, symSize: 0xF8 }
  - { offsetInCU: 0x12461, offset: 0x12461, size: 0x8, addend: 0x0, symName: __ZNKSt3__16vectorIN6Market5StockENS_9allocatorIS2_EEE4sizeB8ue170006Ev, symObjAddr: 0x22338, symBinAddr: 0x100025FFC, symSize: 0xF8 }
  - { offsetInCU: 0x1248C, offset: 0x1248C, size: 0x8, addend: 0x0, symName: __ZNSt3__118basic_stringstreamIcNS_11char_traitsIcEENS_9allocatorIcEEED1Ev, symObjAddr: 0x22430, symBinAddr: 0x1000260F4, symSize: 0x8C }
  - { offsetInCU: 0x124B9, offset: 0x124B9, size: 0x8, addend: 0x0, symName: __ZNSt3__112basic_stringIcNS_11char_traitsIcEENS_9allocatorIcEEEC2B8ue170006Ev, symObjAddr: 0x224BC, symBinAddr: 0x100026180, symSize: 0x274 }
  - { offsetInCU: 0x124E4, offset: 0x124E4, size: 0x8, addend: 0x0, symName: __ZNSt3__112basic_stringIcNS_11char_traitsIcEENS_9allocatorIcEEE14__default_initB8ue170006Ev, symObjAddr: 0x22730, symBinAddr: 0x1000263F4, symSize: 0x2B4 }
  - { offsetInCU: 0x12529, offset: 0x12529, size: 0x8, addend: 0x0, symName: __ZNKSt3__113basic_istreamIcNS_11char_traitsIcEEE6sentrycvbB8ue170006Ev, symObjAddr: 0x23890, symBinAddr: 0x100027554, symSize: 0xE8 }
  - { offsetInCU: 0x1254F, offset: 0x1254F, size: 0x8, addend: 0x0, symName: __ZNSt3__112basic_stringIcNS_11char_traitsIcEENS_9allocatorIcEEE5clearB8ue170006Ev, symObjAddr: 0x23978, symBinAddr: 0x10002763C, symSize: 0x398 }
  - { offsetInCU: 0x12578, offset: 0x12578, size: 0x8, addend: 0x0, symName: __ZNSt3__115basic_streambufIcNS_11char_traitsIcEEE6sbumpcB8ue170006Ev, symObjAddr: 0x23D10, symBinAddr: 0x1000279D4, symSize: 0x4D8 }
  - { offsetInCU: 0x1259E, offset: 0x1259E, size: 0x8, addend: 0x0, symName: __ZNSt3__111char_traitsIcE12to_char_typeB8ue170006Ei, symObjAddr: 0x241E8, symBinAddr: 0x100027EAC, symSize: 0x18 }
  - { offsetInCU: 0x125C1, offset: 0x125C1, size: 0x8, addend: 0x0, symName: __ZNSt3__111char_traitsIcE2eqEcc, symObjAddr: 0x24200, symBinAddr: 0x100027EC4, symSize: 0x28 }
  - { offsetInCU: 0x125F2, offset: 0x125F2, size: 0x8, addend: 0x0, symName: __ZNKSt3__112basic_stringIcNS_11char_traitsIcEENS_9allocatorIcEEE4sizeB8ue170006Ev, symObjAddr: 0x24228, symBinAddr: 0x100027EEC, symSize: 0x98 }
  - { offsetInCU: 0x12618, offset: 0x12618, size: 0x8, addend: 0x0, symName: __ZNKSt3__112basic_stringIcNS_11char_traitsIcEENS_9allocatorIcEEE8max_sizeB8ue170006Ev, symObjAddr: 0x242C0, symBinAddr: 0x100027F84, symSize: 0x1B8 }
  - { offsetInCU: 0x1266A, offset: 0x1266A, size: 0x8, addend: 0x0, symName: __ZNSt3__18ios_base18__setstate_nothrowB8ue170006Ej, symObjAddr: 0x24478, symBinAddr: 0x10002813C, symSize: 0x320 }
  - { offsetInCU: 0x1269F, offset: 0x1269F, size: 0x8, addend: 0x0, symName: __ZNKSt3__19basic_iosIcNS_11char_traitsIcEEE10exceptionsB8ue170006Ev, symObjAddr: 0x24798, symBinAddr: 0x10002845C, symSize: 0x120 }
  - { offsetInCU: 0x126C5, offset: 0x126C5, size: 0x8, addend: 0x0, symName: __ZNSt3__111char_traitsIcE6assignB8ue170006ERcRKc, symObjAddr: 0x248B8, symBinAddr: 0x10002857C, symSize: 0xF4 }
  - { offsetInCU: 0x126F6, offset: 0x126F6, size: 0x8, addend: 0x0, symName: __ZNSt3__112basic_stringIcNS_11char_traitsIcEENS_9allocatorIcEEE15__set_long_sizeB8ue170006Em, symObjAddr: 0x249AC, symBinAddr: 0x100028670, symSize: 0x220 }
  - { offsetInCU: 0x1272B, offset: 0x1272B, size: 0x8, addend: 0x0, symName: __ZNSt3__112basic_stringIcNS_11char_traitsIcEENS_9allocatorIcEEE16__set_short_sizeB8ue170006Em, symObjAddr: 0x24BCC, symBinAddr: 0x100028890, symSize: 0x394 }
  - { offsetInCU: 0x12760, offset: 0x12760, size: 0x8, addend: 0x0, symName: __ZNSt3__111char_traitsIcE11to_int_typeB8ue170006Ec, symObjAddr: 0x24F60, symBinAddr: 0x100028C24, symSize: 0x14 }
  - { offsetInCU: 0x12784, offset: 0x12784, size: 0x8, addend: 0x0, symName: __ZNKSt3__112basic_stringIcNS_11char_traitsIcEENS_9allocatorIcEEE15__get_long_sizeB8ue170006Ev, symObjAddr: 0x24F74, symBinAddr: 0x100028C38, symSize: 0x210 }
  - { offsetInCU: 0x127AA, offset: 0x127AA, size: 0x8, addend: 0x0, symName: __ZNKSt3__112basic_stringIcNS_11char_traitsIcEENS_9allocatorIcEEE16__get_short_sizeB8ue170006Ev, symObjAddr: 0x25184, symBinAddr: 0x100028E48, symSize: 0x1F8 }
  - { offsetInCU: 0x127DA, offset: 0x127DA, size: 0x8, addend: 0x0, symName: __ZNSt3__116allocator_traitsINS_9allocatorIcEEE8max_sizeB8ue170006IS2_vEEmRKS2_, symObjAddr: 0x2537C, symBinAddr: 0x100029040, symSize: 0x24 }
  - { offsetInCU: 0x12808, offset: 0x12808, size: 0x8, addend: 0x0, symName: __ZNKSt3__112basic_stringIcNS_11char_traitsIcEENS_9allocatorIcEEE7__allocB8ue170006Ev, symObjAddr: 0x253A0, symBinAddr: 0x100029064, symSize: 0xDC }
  - { offsetInCU: 0x1282E, offset: 0x1282E, size: 0x8, addend: 0x0, symName: __ZNSt3__114numeric_limitsImE3maxB8ue170006Ev, symObjAddr: 0x2547C, symBinAddr: 0x100029140, symSize: 0x14 }
  - { offsetInCU: 0x12842, offset: 0x12842, size: 0x8, addend: 0x0, symName: __ZNKSt3__19allocatorIcE8max_sizeB8ue170006Ev, symObjAddr: 0x25490, symBinAddr: 0x100029154, symSize: 0x4C }
  - { offsetInCU: 0x12868, offset: 0x12868, size: 0x8, addend: 0x0, symName: __ZNKSt3__117__compressed_pairINS_12basic_stringIcNS_11char_traitsIcEENS_9allocatorIcEEE5__repES5_E6secondB8ue170006Ev, symObjAddr: 0x254DC, symBinAddr: 0x1000291A0, symSize: 0x108 }
  - { offsetInCU: 0x1288E, offset: 0x1288E, size: 0x8, addend: 0x0, symName: __ZNKSt3__122__compressed_pair_elemINS_9allocatorIcEELi1ELb1EE5__getB8ue170006Ev, symObjAddr: 0x255E4, symBinAddr: 0x1000292A8, symSize: 0x74 }
  - { offsetInCU: 0x128B4, offset: 0x128B4, size: 0x8, addend: 0x0, symName: __ZNSt3__123__libcpp_numeric_limitsImLb1EE3maxB8ue170006Ev, symObjAddr: 0x25658, symBinAddr: 0x10002931C, symSize: 0x8 }
  - { offsetInCU: 0x128C8, offset: 0x128C8, size: 0x8, addend: 0x0, symName: __ZNKSt3__18ios_base10exceptionsB8ue170006Ev, symObjAddr: 0x25660, symBinAddr: 0x100029324, symSize: 0x160 }
  - { offsetInCU: 0x128F0, offset: 0x128F0, size: 0x8, addend: 0x0, symName: __ZNSt3__114numeric_limitsIlE3maxB8ue170006Ev, symObjAddr: 0x257C0, symBinAddr: 0x100029484, symSize: 0x14 }
  - { offsetInCU: 0x12904, offset: 0x12904, size: 0x8, addend: 0x0, symName: __ZNSt3__115basic_streambufIcNS_11char_traitsIcEEE5sgetcB8ue170006Ev, symObjAddr: 0x257D4, symBinAddr: 0x100029498, symSize: 0x418 }
  - { offsetInCU: 0x1292A, offset: 0x1292A, size: 0x8, addend: 0x0, symName: __ZNKSt3__15ctypeIcE2isB8ue170006Ejc, symObjAddr: 0x25BEC, symBinAddr: 0x1000298B0, symSize: 0x314 }
  - { offsetInCU: 0x1296E, offset: 0x1296E, size: 0x8, addend: 0x0, symName: __ZNSt3__123__libcpp_numeric_limitsIlLb1EE3maxB8ue170006Ev, symObjAddr: 0x25F00, symBinAddr: 0x100029BC4, symSize: 0x8 }
  - { offsetInCU: 0x12981, offset: 0x12981, size: 0x8, addend: 0x0, symName: __Z7isasciii, symObjAddr: 0x25F08, symBinAddr: 0x100029BCC, symSize: 0x24 }
  - { offsetInCU: 0x129AE, offset: 0x129AE, size: 0x8, addend: 0x0, symName: __ZNSt3__16vectorIN6Market6TraderENS_9allocatorIS2_EEE8__appendEm, symObjAddr: 0x25F2C, symBinAddr: 0x100029BF0, symSize: 0x4D0 }
  - { offsetInCU: 0x12A10, offset: 0x12A10, size: 0x8, addend: 0x0, symName: __ZNSt3__16vectorIN6Market6TraderENS_9allocatorIS2_EEE17__destruct_at_endB8ue170006EPS2_, symObjAddr: 0x263FC, symBinAddr: 0x10002A0C0, symSize: 0x90 }
  - { offsetInCU: 0x12A54, offset: 0x12A54, size: 0x8, addend: 0x0, symName: __ZNSt3__16vectorIN6Market6TraderENS_9allocatorIS2_EEE9__end_capB8ue170006Ev, symObjAddr: 0x2648C, symBinAddr: 0x10002A150, symSize: 0x100 }
  - { offsetInCU: 0x12A7A, offset: 0x12A7A, size: 0x8, addend: 0x0, symName: __ZNSt3__16vectorIN6Market6TraderENS_9allocatorIS2_EEE18__construct_at_endEm, symObjAddr: 0x2658C, symBinAddr: 0x10002A250, symSize: 0x5A0 }
  - { offsetInCU: 0x12AF4, offset: 0x12AF4, size: 0x8, addend: 0x0, symName: __ZNSt3__16vectorIN6Market6TraderENS_9allocatorIS2_EEE7__allocB8ue170006Ev, symObjAddr: 0x26B2C, symBinAddr: 0x10002A7F0, symSize: 0xE4 }
  - { offsetInCU: 0x12B1A, offset: 0x12B1A, size: 0x8, addend: 0x0, symName: __ZNKSt3__16vectorIN6Market6TraderENS_9allocatorIS2_EEE11__recommendB8ue170006Em, symObjAddr: 0x26C10, symBinAddr: 0x10002A8D4, symSize: 0x45C }
  - { offsetInCU: 0x12B76, offset: 0x12B76, size: 0x8, addend: 0x0, symName: __ZNSt3__114__split_bufferIN6Market6TraderERNS_9allocatorIS2_EEEC1EmmS5_, symObjAddr: 0x2706C, symBinAddr: 0x10002AD30, symSize: 0x90 }
  - { offsetInCU: 0x12BCC, offset: 0x12BCC, size: 0x8, addend: 0x0, symName: __ZNSt3__114__split_bufferIN6Market6TraderERNS_9allocatorIS2_EEE18__construct_at_endEm, symObjAddr: 0x270FC, symBinAddr: 0x10002ADC0, symSize: 0x54C }
  - { offsetInCU: 0x12C17, offset: 0x12C17, size: 0x8, addend: 0x0, symName: __ZNSt3__114__split_bufferIN6Market6TraderERNS_9allocatorIS2_EEED1Ev, symObjAddr: 0x27EA4, symBinAddr: 0x10002BB68, symSize: 0x78 }
  - { offsetInCU: 0x12C43, offset: 0x12C43, size: 0x8, addend: 0x0, symName: __ZNSt3__117__compressed_pairIPN6Market6TraderENS_9allocatorIS2_EEE5firstB8ue170006Ev, symObjAddr: 0x27F1C, symBinAddr: 0x10002BBE0, symSize: 0x124 }
  - { offsetInCU: 0x12C69, offset: 0x12C69, size: 0x8, addend: 0x0, symName: __ZNSt3__122__compressed_pair_elemIPN6Market6TraderELi0ELb0EE5__getB8ue170006Ev, symObjAddr: 0x28040, symBinAddr: 0x10002BD04, symSize: 0xAC }
  - { offsetInCU: 0x12CA8, offset: 0x12CA8, size: 0x8, addend: 0x0, symName: __ZNSt3__16vectorIN6Market6TraderENS_9allocatorIS2_EEE21_ConstructTransactionC1B8ue170006ERS5_m, symObjAddr: 0x280EC, symBinAddr: 0x10002BDB0, symSize: 0x88 }
  - { offsetInCU: 0x12CF0, offset: 0x12CF0, size: 0x8, addend: 0x0, symName: __ZNSt3__116allocator_traitsINS_9allocatorIN6Market6TraderEEEE9constructB8ue170006IS3_JEvEEvRS4_PT_DpOT0_, symObjAddr: 0x28174, symBinAddr: 0x10002BE38, symSize: 0x2C }
  - { offsetInCU: 0x12D32, offset: 0x12D32, size: 0x8, addend: 0x0, symName: __ZNSt3__16vectorIN6Market6TraderENS_9allocatorIS2_EEE21_ConstructTransactionD1B8ue170006Ev, symObjAddr: 0x281B4, symBinAddr: 0x10002BE78, symSize: 0x78 }
  - { offsetInCU: 0x12D5C, offset: 0x12D5C, size: 0x8, addend: 0x0, symName: __ZNSt3__16vectorIN6Market6TraderENS_9allocatorIS2_EEE21_ConstructTransactionC2B8ue170006ERS5_m, symObjAddr: 0x2822C, symBinAddr: 0x10002BEF0, symSize: 0x3E0 }
  - { offsetInCU: 0x12DA4, offset: 0x12DA4, size: 0x8, addend: 0x0, symName: __ZNKSt3__16vectorIN6Market6TraderENS_9allocatorIS2_EEE19__annotate_increaseB8ue170006Em, symObjAddr: 0x2860C, symBinAddr: 0x10002C2D0, symSize: 0x46C }
  - { offsetInCU: 0x12DD9, offset: 0x12DD9, size: 0x8, addend: 0x0, symName: __ZNKSt3__16vectorIN6Market6TraderENS_9allocatorIS2_EEE31__annotate_contiguous_containerEPKvS7_S7_S7_, symObjAddr: 0x28A78, symBinAddr: 0x10002C73C, symSize: 0x9C }
  - { offsetInCU: 0x12E3B, offset: 0x12E3B, size: 0x8, addend: 0x0, symName: __ZNKSt3__16vectorIN6Market6TraderENS_9allocatorIS2_EEE4dataB8ue170006Ev, symObjAddr: 0x28B14, symBinAddr: 0x10002C7D8, symSize: 0xB0 }
  - { offsetInCU: 0x12E61, offset: 0x12E61, size: 0x8, addend: 0x0, symName: __ZNKSt3__16vectorIN6Market6TraderENS_9allocatorIS2_EEE8capacityB8ue170006Ev, symObjAddr: 0x28BC4, symBinAddr: 0x10002C888, symSize: 0x144 }
  - { offsetInCU: 0x12E87, offset: 0x12E87, size: 0x8, addend: 0x0, symName: __ZNKSt3__16vectorIN6Market6TraderENS_9allocatorIS2_EEE9__end_capB8ue170006Ev, symObjAddr: 0x28D08, symBinAddr: 0x10002C9CC, symSize: 0x100 }
  - { offsetInCU: 0x12EAD, offset: 0x12EAD, size: 0x8, addend: 0x0, symName: __ZNKSt3__117__compressed_pairIPN6Market6TraderENS_9allocatorIS2_EEE5firstB8ue170006Ev, symObjAddr: 0x28E08, symBinAddr: 0x10002CACC, symSize: 0x124 }
  - { offsetInCU: 0x12ED3, offset: 0x12ED3, size: 0x8, addend: 0x0, symName: __ZNKSt3__122__compressed_pair_elemIPN6Market6TraderELi0ELb0EE5__getB8ue170006Ev, symObjAddr: 0x28F2C, symBinAddr: 0x10002CBF0, symSize: 0xAC }
  - { offsetInCU: 0x12EF9, offset: 0x12EF9, size: 0x8, addend: 0x0, symName: __ZNSt3__19allocatorIN6Market6TraderEE9constructB8ue170006IS2_JEEEvPT_DpOT0_, symObjAddr: 0x28FD8, symBinAddr: 0x10002CC9C, symSize: 0xA4 }
  - { offsetInCU: 0x12F3B, offset: 0x12F3B, size: 0x8, addend: 0x0, symName: __ZNSt3__16vectorIN6Market6TraderENS_9allocatorIS2_EEE21_ConstructTransactionD2B8ue170006Ev, symObjAddr: 0x2907C, symBinAddr: 0x10002CD40, symSize: 0x390 }
  - { offsetInCU: 0x12F65, offset: 0x12F65, size: 0x8, addend: 0x0, symName: __ZNKSt3__16vectorIN6Market6TraderENS_9allocatorIS2_EEE17__annotate_shrinkB8ue170006Em, symObjAddr: 0x2940C, symBinAddr: 0x10002D0D0, symSize: 0x378 }
  - { offsetInCU: 0x12F9A, offset: 0x12F9A, size: 0x8, addend: 0x0, symName: __ZNSt3__117__compressed_pairIPN6Market6TraderENS_9allocatorIS2_EEE6secondB8ue170006Ev, symObjAddr: 0x29784, symBinAddr: 0x10002D448, symSize: 0x108 }
  - { offsetInCU: 0x12FC0, offset: 0x12FC0, size: 0x8, addend: 0x0, symName: __ZNSt3__122__compressed_pair_elemINS_9allocatorIN6Market6TraderEEELi1ELb1EE5__getB8ue170006Ev, symObjAddr: 0x2988C, symBinAddr: 0x10002D550, symSize: 0x74 }
  - { offsetInCU: 0x12FE6, offset: 0x12FE6, size: 0x8, addend: 0x0, symName: __ZNKSt3__16vectorIN6Market6TraderENS_9allocatorIS2_EEE8max_sizeEv, symObjAddr: 0x29900, symBinAddr: 0x10002D5C4, symSize: 0x3B8 }
  - { offsetInCU: 0x1300F, offset: 0x1300F, size: 0x8, addend: 0x0, symName: __ZNKSt3__16vectorIN6Market6TraderENS_9allocatorIS2_EEE20__throw_length_errorB8ue170006Ev, symObjAddr: 0x29CB8, symBinAddr: 0x10002D97C, symSize: 0x80 }
  - { offsetInCU: 0x1303F, offset: 0x1303F, size: 0x8, addend: 0x0, symName: __ZNSt3__116allocator_traitsINS_9allocatorIN6Market6TraderEEEE8max_sizeB8ue170006IS4_vEEmRKS4_, symObjAddr: 0x29F40, symBinAddr: 0x10002DC04, symSize: 0x24 }
  - { offsetInCU: 0x1306D, offset: 0x1306D, size: 0x8, addend: 0x0, symName: __ZNKSt3__16vectorIN6Market6TraderENS_9allocatorIS2_EEE7__allocB8ue170006Ev, symObjAddr: 0x29F64, symBinAddr: 0x10002DC28, symSize: 0xE4 }
  - { offsetInCU: 0x130A7, offset: 0x130A7, size: 0x8, addend: 0x0, symName: __ZNKSt3__16__lessIvvEclB8ue170006ImmEEbRKT_RKT0_, symObjAddr: 0x2A308, symBinAddr: 0x10002DFCC, symSize: 0xEC }
  - { offsetInCU: 0x130FB, offset: 0x130FB, size: 0x8, addend: 0x0, symName: __ZNKSt3__19allocatorIN6Market6TraderEE8max_sizeB8ue170006Ev, symObjAddr: 0x2A3F4, symBinAddr: 0x10002E0B8, symSize: 0x50 }
  - { offsetInCU: 0x13121, offset: 0x13121, size: 0x8, addend: 0x0, symName: __ZNKSt3__117__compressed_pairIPN6Market6TraderENS_9allocatorIS2_EEE6secondB8ue170006Ev, symObjAddr: 0x2A444, symBinAddr: 0x10002E108, symSize: 0x108 }
  - { offsetInCU: 0x13147, offset: 0x13147, size: 0x8, addend: 0x0, symName: __ZNKSt3__122__compressed_pair_elemINS_9allocatorIN6Market6TraderEEELi1ELb1EE5__getB8ue170006Ev, symObjAddr: 0x2A54C, symBinAddr: 0x10002E210, symSize: 0x74 }
  - { offsetInCU: 0x1316D, offset: 0x1316D, size: 0x8, addend: 0x0, symName: __ZNSt12length_errorC1B8ue170006EPKc, symObjAddr: 0x2A674, symBinAddr: 0x10002E338, symSize: 0x80 }
  - { offsetInCU: 0x131A5, offset: 0x131A5, size: 0x8, addend: 0x0, symName: __ZNSt12length_errorC2B8ue170006EPKc, symObjAddr: 0x2A6F4, symBinAddr: 0x10002E3B8, symSize: 0x128 }
  - { offsetInCU: 0x131DD, offset: 0x131DD, size: 0x8, addend: 0x0, symName: __ZNSt3__114__split_bufferIN6Market6TraderERNS_9allocatorIS2_EEEC2EmmS5_, symObjAddr: 0x2AADC, symBinAddr: 0x10002E7A0, symSize: 0x7E8 }
  - { offsetInCU: 0x13258, offset: 0x13258, size: 0x8, addend: 0x0, symName: __ZNSt3__117__compressed_pairIPN6Market6TraderERNS_9allocatorIS2_EEEC1B8ue170006IDnS6_EEOT_OT0_, symObjAddr: 0x2B2C4, symBinAddr: 0x10002EF88, symSize: 0x88 }
  - { offsetInCU: 0x132B0, offset: 0x132B0, size: 0x8, addend: 0x0, symName: __ZNSt3__114__split_bufferIN6Market6TraderERNS_9allocatorIS2_EEE7__allocB8ue170006Ev, symObjAddr: 0x2B5D8, symBinAddr: 0x10002F29C, symSize: 0xE4 }
  - { offsetInCU: 0x132D6, offset: 0x132D6, size: 0x8, addend: 0x0, symName: __ZNSt3__114__split_bufferIN6Market6TraderERNS_9allocatorIS2_EEE9__end_capB8ue170006Ev, symObjAddr: 0x2B6BC, symBinAddr: 0x10002F380, symSize: 0x100 }
  - { offsetInCU: 0x132FC, offset: 0x132FC, size: 0x8, addend: 0x0, symName: __ZNSt3__117__compressed_pairIPN6Market6TraderERNS_9allocatorIS2_EEEC2B8ue170006IDnS6_EEOT_OT0_, symObjAddr: 0x2B7BC, symBinAddr: 0x10002F480, symSize: 0x198 }
  - { offsetInCU: 0x13354, offset: 0x13354, size: 0x8, addend: 0x0, symName: __ZNSt3__122__compressed_pair_elemIRNS_9allocatorIN6Market6TraderEEELi1ELb0EEC2B8ue170006IS5_vEEOT_, symObjAddr: 0x2B954, symBinAddr: 0x10002F618, symSize: 0xEC }
  - { offsetInCU: 0x13396, offset: 0x13396, size: 0x8, addend: 0x0, symName: __ZNSt3__19allocatorIN6Market6TraderEE8allocateB8ue170006Em, symObjAddr: 0x2BA40, symBinAddr: 0x10002F704, symSize: 0xD0 }
  - { offsetInCU: 0x133CA, offset: 0x133CA, size: 0x8, addend: 0x0, symName: __ZNSt3__117__compressed_pairIPN6Market6TraderERNS_9allocatorIS2_EEE6secondB8ue170006Ev, symObjAddr: 0x2BC9C, symBinAddr: 0x10002F960, symSize: 0x110 }
  - { offsetInCU: 0x133F0, offset: 0x133F0, size: 0x8, addend: 0x0, symName: __ZNSt3__122__compressed_pair_elemIRNS_9allocatorIN6Market6TraderEEELi1ELb0EE5__getB8ue170006Ev, symObjAddr: 0x2BDAC, symBinAddr: 0x10002FA70, symSize: 0xD8 }
  - { offsetInCU: 0x13416, offset: 0x13416, size: 0x8, addend: 0x0, symName: __ZNSt3__117__compressed_pairIPN6Market6TraderERNS_9allocatorIS2_EEE5firstB8ue170006Ev, symObjAddr: 0x2BE84, symBinAddr: 0x10002FB48, symSize: 0x124 }
  - { offsetInCU: 0x13446, offset: 0x13446, size: 0x8, addend: 0x0, symName: __ZNSt3__114__split_bufferIN6Market6TraderERNS_9allocatorIS2_EEE21_ConstructTransactionC1B8ue170006EPPS2_m, symObjAddr: 0x2BFA8, symBinAddr: 0x10002FC6C, symSize: 0x88 }
  - { offsetInCU: 0x1348C, offset: 0x1348C, size: 0x8, addend: 0x0, symName: __ZNSt3__114__split_bufferIN6Market6TraderERNS_9allocatorIS2_EEE21_ConstructTransactionD1B8ue170006Ev, symObjAddr: 0x2C030, symBinAddr: 0x10002FCF4, symSize: 0x78 }
  - { offsetInCU: 0x134B6, offset: 0x134B6, size: 0x8, addend: 0x0, symName: __ZNSt3__114__split_bufferIN6Market6TraderERNS_9allocatorIS2_EEE21_ConstructTransactionC2B8ue170006EPPS2_m, symObjAddr: 0x2C0A8, symBinAddr: 0x10002FD6C, symSize: 0x32C }
  - { offsetInCU: 0x134FC, offset: 0x134FC, size: 0x8, addend: 0x0, symName: __ZNSt3__114__split_bufferIN6Market6TraderERNS_9allocatorIS2_EEE21_ConstructTransactionD2B8ue170006Ev, symObjAddr: 0x2C3D4, symBinAddr: 0x100030098, symSize: 0x174 }
  - { offsetInCU: 0x13526, offset: 0x13526, size: 0x8, addend: 0x0, symName: __ZNKSt3__16vectorIN6Market6TraderENS_9allocatorIS2_EEE17__annotate_deleteB8ue170006Ev, symObjAddr: 0x2C548, symBinAddr: 0x10003020C, symSize: 0x388 }
  - { offsetInCU: 0x1354C, offset: 0x1354C, size: 0x8, addend: 0x0, symName: __ZNSt3__116reverse_iteratorIPN6Market6TraderEEC1B8ue170006ES3_, symObjAddr: 0x2CD78, symBinAddr: 0x100030A3C, symSize: 0x80 }
  - { offsetInCU: 0x13584, offset: 0x13584, size: 0x8, addend: 0x0, symName: __ZNKSt3__116reverse_iteratorIPN6Market6TraderEE4baseB8ue170006Ev, symObjAddr: 0x2CDF8, symBinAddr: 0x100030ABC, symSize: 0xB0 }
  - { offsetInCU: 0x135AA, offset: 0x135AA, size: 0x8, addend: 0x0, symName: __ZNKSt3__16vectorIN6Market6TraderENS_9allocatorIS2_EEE14__annotate_newB8ue170006Em, symObjAddr: 0x2D068, symBinAddr: 0x100030D2C, symSize: 0x378 }
  - { offsetInCU: 0x13603, offset: 0x13603, size: 0x8, addend: 0x0, symName: __ZNKSt3__111__move_loopINS_17_ClassicAlgPolicyEEclB8ue170006INS_16reverse_iteratorIPN6Market6TraderEEES8_S8_EENS_4pairIT_T1_EESA_T0_SB_, symObjAddr: 0x2EDA0, symBinAddr: 0x100032A64, symSize: 0x370 }
  - { offsetInCU: 0x13681, offset: 0x13681, size: 0x8, addend: 0x0, symName: __ZNSt3__18_IterOpsINS_17_ClassicAlgPolicyEE11__iter_moveB8ue170006IRNS_16reverse_iteratorIPN6Market6TraderEEEEENS_9enable_ifIXsr12is_referenceIDTdeclsr3stdE7declvalIRT_EEEEE5valueEDTclsr3stdE4movedeclsr3stdE7declvalISC_EEEEE4typeEOSB_, symObjAddr: 0x2FD5C, symBinAddr: 0x100033A20, symSize: 0xB8 }
  - { offsetInCU: 0x136AD, offset: 0x136AD, size: 0x8, addend: 0x0, symName: __ZNKSt3__116reverse_iteratorIPN6Market6TraderEEdeB8ue170006Ev, symObjAddr: 0x2FE14, symBinAddr: 0x100033AD8, symSize: 0x184 }
  - { offsetInCU: 0x136E1, offset: 0x136E1, size: 0x8, addend: 0x0, symName: __ZNSt3__116reverse_iteratorIPN6Market6TraderEEppB8ue170006Ev, symObjAddr: 0x2FF98, symBinAddr: 0x100033C5C, symSize: 0x1B0 }
  - { offsetInCU: 0x13707, offset: 0x13707, size: 0x8, addend: 0x0, symName: __ZNSt3__18_IterOpsINS_17_ClassicAlgPolicyEE25__validate_iter_referenceB8ue170006IRNS_16reverse_iteratorIPN6Market6TraderEEEEEvv, symObjAddr: 0x30148, symBinAddr: 0x100033E0C, symSize: 0x4 }
  - { offsetInCU: 0x13725, offset: 0x13725, size: 0x8, addend: 0x0, symName: __ZNSt3__118__unwrap_iter_implINS_16reverse_iteratorIPN6Market6TraderEEELb0EE8__unwrapB8ue170006ES5_, symObjAddr: 0x3014C, symBinAddr: 0x100033E10, symSize: 0x274 }
  - { offsetInCU: 0x13752, offset: 0x13752, size: 0x8, addend: 0x0, symName: __ZNSt3__14pairINS_16reverse_iteratorIPN6Market6TraderEEES5_EC1B8ue170006IS5_S5_LPv0EEEOT_OT0_, symObjAddr: 0x303C0, symBinAddr: 0x100034084, symSize: 0x88 }
  - { offsetInCU: 0x137B0, offset: 0x137B0, size: 0x8, addend: 0x0, symName: __ZNSt3__14pairINS_16reverse_iteratorIPN6Market6TraderEEES5_EC2B8ue170006IS5_S5_LPv0EEEOT_OT0_, symObjAddr: 0x30448, symBinAddr: 0x10003410C, symSize: 0xA0 }
  - { offsetInCU: 0x1380E, offset: 0x1380E, size: 0x8, addend: 0x0, symName: __ZNSt3__118__unwrap_iter_implINS_16reverse_iteratorIPN6Market6TraderEEELb0EE8__rewrapB8ue170006ES5_S5_, symObjAddr: 0x304E8, symBinAddr: 0x1000341AC, symSize: 0x2E0 }
  - { offsetInCU: 0x13844, offset: 0x13844, size: 0x8, addend: 0x0, symName: __ZNSt3__116reverse_iteratorIPN6Market6TraderEEC2B8ue170006ES3_, symObjAddr: 0x307C8, symBinAddr: 0x10003448C, symSize: 0x10C }
  - { offsetInCU: 0x1387C, offset: 0x1387C, size: 0x8, addend: 0x0, symName: __ZNSt3__114__split_bufferIN6Market6TraderERNS_9allocatorIS2_EEED2Ev, symObjAddr: 0x308D4, symBinAddr: 0x100034598, symSize: 0x16C }
  - { offsetInCU: 0x138A8, offset: 0x138A8, size: 0x8, addend: 0x0, symName: __ZNSt3__114__split_bufferIN6Market6TraderERNS_9allocatorIS2_EEE5clearB8ue170006Ev, symObjAddr: 0x30A40, symBinAddr: 0x100034704, symSize: 0xB4 }
  - { offsetInCU: 0x138CE, offset: 0x138CE, size: 0x8, addend: 0x0, symName: __ZNSt3__116allocator_traitsINS_9allocatorIN6Market6TraderEEEE10deallocateB8ue170006ERS4_PS3_m, symObjAddr: 0x30AF4, symBinAddr: 0x1000347B8, symSize: 0x34 }
  - { offsetInCU: 0x13910, offset: 0x13910, size: 0x8, addend: 0x0, symName: __ZNKSt3__114__split_bufferIN6Market6TraderERNS_9allocatorIS2_EEE8capacityB8ue170006Ev, symObjAddr: 0x30B28, symBinAddr: 0x1000347EC, symSize: 0x144 }
  - { offsetInCU: 0x13936, offset: 0x13936, size: 0x8, addend: 0x0, symName: __ZNSt3__114__split_bufferIN6Market6TraderERNS_9allocatorIS2_EEE17__destruct_at_endB8ue170006EPS2_, symObjAddr: 0x30C6C, symBinAddr: 0x100034930, symSize: 0x74 }
  - { offsetInCU: 0x1396A, offset: 0x1396A, size: 0x8, addend: 0x0, symName: __ZNSt3__114__split_bufferIN6Market6TraderERNS_9allocatorIS2_EEE17__destruct_at_endB8ue170006EPS2_NS_17integral_constantIbLb0EEE, symObjAddr: 0x30CE0, symBinAddr: 0x1000349A4, symSize: 0x224 }
  - { offsetInCU: 0x139AB, offset: 0x139AB, size: 0x8, addend: 0x0, symName: __ZNSt3__116allocator_traitsINS_9allocatorIN6Market6TraderEEEE7destroyB8ue170006IS3_vEEvRS4_PT_, symObjAddr: 0x30F04, symBinAddr: 0x100034BC8, symSize: 0x2C }
  - { offsetInCU: 0x139E8, offset: 0x139E8, size: 0x8, addend: 0x0, symName: __ZNSt3__19allocatorIN6Market6TraderEE7destroyB8ue170006EPS2_, symObjAddr: 0x30F30, symBinAddr: 0x100034BF4, symSize: 0x4C }
  - { offsetInCU: 0x13A1C, offset: 0x13A1C, size: 0x8, addend: 0x0, symName: __ZNSt3__19allocatorIN6Market6TraderEE10deallocateB8ue170006EPS2_m, symObjAddr: 0x30F7C, symBinAddr: 0x100034C40, symSize: 0x7C }
  - { offsetInCU: 0x13A5E, offset: 0x13A5E, size: 0x8, addend: 0x0, symName: __ZNKSt3__114__split_bufferIN6Market6TraderERNS_9allocatorIS2_EEE9__end_capB8ue170006Ev, symObjAddr: 0x31100, symBinAddr: 0x100034DC4, symSize: 0x100 }
  - { offsetInCU: 0x13A84, offset: 0x13A84, size: 0x8, addend: 0x0, symName: __ZNKSt3__117__compressed_pairIPN6Market6TraderERNS_9allocatorIS2_EEE5firstB8ue170006Ev, symObjAddr: 0x31200, symBinAddr: 0x100034EC4, symSize: 0x124 }
  - { offsetInCU: 0x13AAA, offset: 0x13AAA, size: 0x8, addend: 0x0, symName: __ZNSt3__16vectorIN6Market6TraderENS_9allocatorIS2_EEE22__base_destruct_at_endB8ue170006EPS2_, symObjAddr: 0x31324, symBinAddr: 0x100034FE8, symSize: 0x1FC }
  - { offsetInCU: 0x13AEE, offset: 0x13AEE, size: 0x8, addend: 0x0, symName: __ZNSt3__16vectorIN6Market5StockENS_9allocatorIS2_EEE8__appendEm, symObjAddr: 0x31520, symBinAddr: 0x1000351E4, symSize: 0x4D0 }
  - { offsetInCU: 0x13B50, offset: 0x13B50, size: 0x8, addend: 0x0, symName: __ZNSt3__16vectorIN6Market5StockENS_9allocatorIS2_EEE17__destruct_at_endB8ue170006EPS2_, symObjAddr: 0x319F0, symBinAddr: 0x1000356B4, symSize: 0x90 }
  - { offsetInCU: 0x13B94, offset: 0x13B94, size: 0x8, addend: 0x0, symName: __ZNSt3__16vectorIN6Market5StockENS_9allocatorIS2_EEE9__end_capB8ue170006Ev, symObjAddr: 0x31A80, symBinAddr: 0x100035744, symSize: 0x100 }
  - { offsetInCU: 0x13BBA, offset: 0x13BBA, size: 0x8, addend: 0x0, symName: __ZNSt3__16vectorIN6Market5StockENS_9allocatorIS2_EEE18__construct_at_endEm, symObjAddr: 0x31B80, symBinAddr: 0x100035844, symSize: 0x5A0 }
  - { offsetInCU: 0x13C34, offset: 0x13C34, size: 0x8, addend: 0x0, symName: __ZNSt3__16vectorIN6Market5StockENS_9allocatorIS2_EEE7__allocB8ue170006Ev, symObjAddr: 0x32120, symBinAddr: 0x100035DE4, symSize: 0xE4 }
  - { offsetInCU: 0x13C5A, offset: 0x13C5A, size: 0x8, addend: 0x0, symName: __ZNKSt3__16vectorIN6Market5StockENS_9allocatorIS2_EEE11__recommendB8ue170006Em, symObjAddr: 0x32204, symBinAddr: 0x100035EC8, symSize: 0x45C }
  - { offsetInCU: 0x13CB6, offset: 0x13CB6, size: 0x8, addend: 0x0, symName: __ZNSt3__114__split_bufferIN6Market5StockERNS_9allocatorIS2_EEEC1EmmS5_, symObjAddr: 0x32660, symBinAddr: 0x100036324, symSize: 0x90 }
  - { offsetInCU: 0x13D0C, offset: 0x13D0C, size: 0x8, addend: 0x0, symName: __ZNSt3__114__split_bufferIN6Market5StockERNS_9allocatorIS2_EEE18__construct_at_endEm, symObjAddr: 0x326F0, symBinAddr: 0x1000363B4, symSize: 0x54C }
  - { offsetInCU: 0x13D57, offset: 0x13D57, size: 0x8, addend: 0x0, symName: __ZNSt3__114__split_bufferIN6Market5StockERNS_9allocatorIS2_EEED1Ev, symObjAddr: 0x33498, symBinAddr: 0x10003715C, symSize: 0x78 }
  - { offsetInCU: 0x13D83, offset: 0x13D83, size: 0x8, addend: 0x0, symName: __ZNSt3__117__compressed_pairIPN6Market5StockENS_9allocatorIS2_EEE5firstB8ue170006Ev, symObjAddr: 0x33510, symBinAddr: 0x1000371D4, symSize: 0x124 }
  - { offsetInCU: 0x13DA9, offset: 0x13DA9, size: 0x8, addend: 0x0, symName: __ZNSt3__122__compressed_pair_elemIPN6Market5StockELi0ELb0EE5__getB8ue170006Ev, symObjAddr: 0x33634, symBinAddr: 0x1000372F8, symSize: 0xAC }
  - { offsetInCU: 0x13DE8, offset: 0x13DE8, size: 0x8, addend: 0x0, symName: __ZNSt3__16vectorIN6Market5StockENS_9allocatorIS2_EEE21_ConstructTransactionC1B8ue170006ERS5_m, symObjAddr: 0x336E0, symBinAddr: 0x1000373A4, symSize: 0x88 }
  - { offsetInCU: 0x13E30, offset: 0x13E30, size: 0x8, addend: 0x0, symName: __ZNSt3__116allocator_traitsINS_9allocatorIN6Market5StockEEEE9constructB8ue170006IS3_JEvEEvRS4_PT_DpOT0_, symObjAddr: 0x33768, symBinAddr: 0x10003742C, symSize: 0x2C }
  - { offsetInCU: 0x13E72, offset: 0x13E72, size: 0x8, addend: 0x0, symName: __ZNSt3__16vectorIN6Market5StockENS_9allocatorIS2_EEE21_ConstructTransactionD1B8ue170006Ev, symObjAddr: 0x337A8, symBinAddr: 0x10003746C, symSize: 0x78 }
  - { offsetInCU: 0x13E9C, offset: 0x13E9C, size: 0x8, addend: 0x0, symName: __ZNSt3__16vectorIN6Market5StockENS_9allocatorIS2_EEE21_ConstructTransactionC2B8ue170006ERS5_m, symObjAddr: 0x33820, symBinAddr: 0x1000374E4, symSize: 0x3E0 }
  - { offsetInCU: 0x13EE4, offset: 0x13EE4, size: 0x8, addend: 0x0, symName: __ZNKSt3__16vectorIN6Market5StockENS_9allocatorIS2_EEE19__annotate_increaseB8ue170006Em, symObjAddr: 0x33C00, symBinAddr: 0x1000378C4, symSize: 0x46C }
  - { offsetInCU: 0x13F19, offset: 0x13F19, size: 0x8, addend: 0x0, symName: __ZNKSt3__16vectorIN6Market5StockENS_9allocatorIS2_EEE31__annotate_contiguous_containerEPKvS7_S7_S7_, symObjAddr: 0x3406C, symBinAddr: 0x100037D30, symSize: 0x9C }
  - { offsetInCU: 0x13F7B, offset: 0x13F7B, size: 0x8, addend: 0x0, symName: __ZNKSt3__16vectorIN6Market5StockENS_9allocatorIS2_EEE4dataB8ue170006Ev, symObjAddr: 0x34108, symBinAddr: 0x100037DCC, symSize: 0xB0 }
  - { offsetInCU: 0x13FA1, offset: 0x13FA1, size: 0x8, addend: 0x0, symName: __ZNKSt3__16vectorIN6Market5StockENS_9allocatorIS2_EEE8capacityB8ue170006Ev, symObjAddr: 0x341B8, symBinAddr: 0x100037E7C, symSize: 0x144 }
  - { offsetInCU: 0x13FC7, offset: 0x13FC7, size: 0x8, addend: 0x0, symName: __ZNKSt3__16vectorIN6Market5StockENS_9allocatorIS2_EEE9__end_capB8ue170006Ev, symObjAddr: 0x342FC, symBinAddr: 0x100037FC0, symSize: 0x100 }
  - { offsetInCU: 0x13FED, offset: 0x13FED, size: 0x8, addend: 0x0, symName: __ZNKSt3__117__compressed_pairIPN6Market5StockENS_9allocatorIS2_EEE5firstB8ue170006Ev, symObjAddr: 0x343FC, symBinAddr: 0x1000380C0, symSize: 0x124 }
  - { offsetInCU: 0x14013, offset: 0x14013, size: 0x8, addend: 0x0, symName: __ZNKSt3__122__compressed_pair_elemIPN6Market5StockELi0ELb0EE5__getB8ue170006Ev, symObjAddr: 0x34520, symBinAddr: 0x1000381E4, symSize: 0xAC }
  - { offsetInCU: 0x14039, offset: 0x14039, size: 0x8, addend: 0x0, symName: __ZNSt3__19allocatorIN6Market5StockEE9constructB8ue170006IS2_JEEEvPT_DpOT0_, symObjAddr: 0x345CC, symBinAddr: 0x100038290, symSize: 0xAC }
  - { offsetInCU: 0x14080, offset: 0x14080, size: 0x8, addend: 0x0, symName: __ZN6Market5StockC1Ev, symObjAddr: 0x34678, symBinAddr: 0x10003833C, symSize: 0x78 }
  - { offsetInCU: 0x140AD, offset: 0x140AD, size: 0x8, addend: 0x0, symName: __ZN6Market5StockC2Ev, symObjAddr: 0x346F0, symBinAddr: 0x1000383B4, symSize: 0x9C }
  - { offsetInCU: 0x140DA, offset: 0x140DA, size: 0x8, addend: 0x0, symName: __ZNSt3__114priority_queueIN6Market10TradeOrderENS_6vectorIS2_NS_9allocatorIS2_EEEENS1_5Stock13sellerCompareEEC1B8ue170006Ev, symObjAddr: 0x3478C, symBinAddr: 0x100038450, symSize: 0x78 }
  - { offsetInCU: 0x14104, offset: 0x14104, size: 0x8, addend: 0x0, symName: __ZNSt3__114priority_queueIN6Market10TradeOrderENS_6vectorIS2_NS_9allocatorIS2_EEEENS1_5Stock12buyerCompareEEC1B8ue170006Ev, symObjAddr: 0x34804, symBinAddr: 0x1000384C8, symSize: 0x78 }
  - { offsetInCU: 0x14133, offset: 0x14133, size: 0x8, addend: 0x0, symName: __ZN6Market7WatcherC1Ev, symObjAddr: 0x3487C, symBinAddr: 0x100038540, symSize: 0x78 }
  - { offsetInCU: 0x1415F, offset: 0x1415F, size: 0x8, addend: 0x0, symName: __ZNSt3__114priority_queueIN6Market10TradeOrderENS_6vectorIS2_NS_9allocatorIS2_EEEENS1_5Stock13sellerCompareEEC2B8ue170006Ev, symObjAddr: 0x348F4, symBinAddr: 0x1000385B8, symSize: 0x78 }
  - { offsetInCU: 0x14189, offset: 0x14189, size: 0x8, addend: 0x0, symName: __ZNSt3__16vectorIN6Market10TradeOrderENS_9allocatorIS2_EEEC1B8ue170006Ev, symObjAddr: 0x3496C, symBinAddr: 0x100038630, symSize: 0x78 }
  - { offsetInCU: 0x141B3, offset: 0x141B3, size: 0x8, addend: 0x0, symName: __ZNSt3__16vectorIN6Market10TradeOrderENS_9allocatorIS2_EEEC2B8ue170006Ev, symObjAddr: 0x349E4, symBinAddr: 0x1000386A8, symSize: 0x340 }
  - { offsetInCU: 0x141DE, offset: 0x141DE, size: 0x8, addend: 0x0, symName: __ZNSt3__117__compressed_pairIPN6Market10TradeOrderENS_9allocatorIS2_EEEC1B8ue170006IDnNS_18__default_init_tagEEEOT_OT0_, symObjAddr: 0x34D24, symBinAddr: 0x1000389E8, symSize: 0x88 }
  - { offsetInCU: 0x14236, offset: 0x14236, size: 0x8, addend: 0x0, symName: __ZNSt3__117__compressed_pairIPN6Market10TradeOrderENS_9allocatorIS2_EEEC2B8ue170006IDnNS_18__default_init_tagEEEOT_OT0_, symObjAddr: 0x34DAC, symBinAddr: 0x100038A70, symSize: 0x140 }
  - { offsetInCU: 0x1428E, offset: 0x1428E, size: 0x8, addend: 0x0, symName: __ZNSt3__122__compressed_pair_elemIPN6Market10TradeOrderELi0ELb0EEC2B8ue170006IDnvEEOT_, symObjAddr: 0x34EEC, symBinAddr: 0x100038BB0, symSize: 0xBC }
  - { offsetInCU: 0x142D0, offset: 0x142D0, size: 0x8, addend: 0x0, symName: __ZNSt3__122__compressed_pair_elemINS_9allocatorIN6Market10TradeOrderEEELi1ELb1EEC2B8ue170006ENS_18__default_init_tagE, symObjAddr: 0x34FA8, symBinAddr: 0x100038C6C, symSize: 0x84 }
  - { offsetInCU: 0x14305, offset: 0x14305, size: 0x8, addend: 0x0, symName: __ZNSt3__19allocatorIN6Market10TradeOrderEEC2B8ue170006Ev, symObjAddr: 0x3502C, symBinAddr: 0x100038CF0, symSize: 0x84 }
  - { offsetInCU: 0x1432F, offset: 0x1432F, size: 0x8, addend: 0x0, symName: __ZNSt3__116__non_trivial_ifILb1ENS_9allocatorIN6Market10TradeOrderEEEEC2B8ue170006Ev, symObjAddr: 0x350B0, symBinAddr: 0x100038D74, symSize: 0x54 }
  - { offsetInCU: 0x14359, offset: 0x14359, size: 0x8, addend: 0x0, symName: __ZNSt3__114priority_queueIN6Market10TradeOrderENS_6vectorIS2_NS_9allocatorIS2_EEEENS1_5Stock12buyerCompareEEC2B8ue170006Ev, symObjAddr: 0x35104, symBinAddr: 0x100038DC8, symSize: 0x78 }
  - { offsetInCU: 0x14383, offset: 0x14383, size: 0x8, addend: 0x0, symName: __ZN6Market7WatcherC2Ev, symObjAddr: 0x3517C, symBinAddr: 0x100038E40, symSize: 0xE0 }
  - { offsetInCU: 0x143AF, offset: 0x143AF, size: 0x8, addend: 0x0, symName: __ZNSt3__16vectorIN6Market5StockENS_9allocatorIS2_EEE21_ConstructTransactionD2B8ue170006Ev, symObjAddr: 0x3525C, symBinAddr: 0x100038F20, symSize: 0x390 }
  - { offsetInCU: 0x143D9, offset: 0x143D9, size: 0x8, addend: 0x0, symName: __ZNKSt3__16vectorIN6Market5StockENS_9allocatorIS2_EEE17__annotate_shrinkB8ue170006Em, symObjAddr: 0x355EC, symBinAddr: 0x1000392B0, symSize: 0x378 }
  - { offsetInCU: 0x1440E, offset: 0x1440E, size: 0x8, addend: 0x0, symName: __ZNSt3__117__compressed_pairIPN6Market5StockENS_9allocatorIS2_EEE6secondB8ue170006Ev, symObjAddr: 0x35964, symBinAddr: 0x100039628, symSize: 0x108 }
  - { offsetInCU: 0x14434, offset: 0x14434, size: 0x8, addend: 0x0, symName: __ZNSt3__122__compressed_pair_elemINS_9allocatorIN6Market5StockEEELi1ELb1EE5__getB8ue170006Ev, symObjAddr: 0x35A6C, symBinAddr: 0x100039730, symSize: 0x74 }
  - { offsetInCU: 0x1445A, offset: 0x1445A, size: 0x8, addend: 0x0, symName: __ZNKSt3__16vectorIN6Market5StockENS_9allocatorIS2_EEE8max_sizeEv, symObjAddr: 0x35AE0, symBinAddr: 0x1000397A4, symSize: 0x3B8 }
  - { offsetInCU: 0x14483, offset: 0x14483, size: 0x8, addend: 0x0, symName: __ZNKSt3__16vectorIN6Market5StockENS_9allocatorIS2_EEE20__throw_length_errorB8ue170006Ev, symObjAddr: 0x35E98, symBinAddr: 0x100039B5C, symSize: 0x80 }
  - { offsetInCU: 0x144B3, offset: 0x144B3, size: 0x8, addend: 0x0, symName: __ZNSt3__116allocator_traitsINS_9allocatorIN6Market5StockEEEE8max_sizeB8ue170006IS4_vEEmRKS4_, symObjAddr: 0x35F18, symBinAddr: 0x100039BDC, symSize: 0x24 }
  - { offsetInCU: 0x144E1, offset: 0x144E1, size: 0x8, addend: 0x0, symName: __ZNKSt3__16vectorIN6Market5StockENS_9allocatorIS2_EEE7__allocB8ue170006Ev, symObjAddr: 0x35F3C, symBinAddr: 0x100039C00, symSize: 0xE4 }
  - { offsetInCU: 0x14507, offset: 0x14507, size: 0x8, addend: 0x0, symName: __ZNKSt3__19allocatorIN6Market5StockEE8max_sizeB8ue170006Ev, symObjAddr: 0x36020, symBinAddr: 0x100039CE4, symSize: 0x50 }
  - { offsetInCU: 0x1452D, offset: 0x1452D, size: 0x8, addend: 0x0, symName: __ZNKSt3__117__compressed_pairIPN6Market5StockENS_9allocatorIS2_EEE6secondB8ue170006Ev, symObjAddr: 0x36070, symBinAddr: 0x100039D34, symSize: 0x108 }
  - { offsetInCU: 0x14553, offset: 0x14553, size: 0x8, addend: 0x0, symName: __ZNKSt3__122__compressed_pair_elemINS_9allocatorIN6Market5StockEEELi1ELb1EE5__getB8ue170006Ev, symObjAddr: 0x36178, symBinAddr: 0x100039E3C, symSize: 0x74 }
  - { offsetInCU: 0x14579, offset: 0x14579, size: 0x8, addend: 0x0, symName: __ZNSt3__114__split_bufferIN6Market5StockERNS_9allocatorIS2_EEEC2EmmS5_, symObjAddr: 0x361EC, symBinAddr: 0x100039EB0, symSize: 0x7E8 }
  - { offsetInCU: 0x145F4, offset: 0x145F4, size: 0x8, addend: 0x0, symName: __ZNSt3__117__compressed_pairIPN6Market5StockERNS_9allocatorIS2_EEEC1B8ue170006IDnS6_EEOT_OT0_, symObjAddr: 0x369D4, symBinAddr: 0x10003A698, symSize: 0x88 }
  - { offsetInCU: 0x1464C, offset: 0x1464C, size: 0x8, addend: 0x0, symName: __ZNSt3__114__split_bufferIN6Market5StockERNS_9allocatorIS2_EEE7__allocB8ue170006Ev, symObjAddr: 0x36CE8, symBinAddr: 0x10003A9AC, symSize: 0xE4 }
  - { offsetInCU: 0x14672, offset: 0x14672, size: 0x8, addend: 0x0, symName: __ZNSt3__114__split_bufferIN6Market5StockERNS_9allocatorIS2_EEE9__end_capB8ue170006Ev, symObjAddr: 0x36DCC, symBinAddr: 0x10003AA90, symSize: 0x100 }
  - { offsetInCU: 0x14698, offset: 0x14698, size: 0x8, addend: 0x0, symName: __ZNSt3__117__compressed_pairIPN6Market5StockERNS_9allocatorIS2_EEEC2B8ue170006IDnS6_EEOT_OT0_, symObjAddr: 0x36ECC, symBinAddr: 0x10003AB90, symSize: 0x198 }
  - { offsetInCU: 0x146F0, offset: 0x146F0, size: 0x8, addend: 0x0, symName: __ZNSt3__122__compressed_pair_elemIRNS_9allocatorIN6Market5StockEEELi1ELb0EEC2B8ue170006IS5_vEEOT_, symObjAddr: 0x37064, symBinAddr: 0x10003AD28, symSize: 0xEC }
  - { offsetInCU: 0x14732, offset: 0x14732, size: 0x8, addend: 0x0, symName: __ZNSt3__19allocatorIN6Market5StockEE8allocateB8ue170006Em, symObjAddr: 0x37150, symBinAddr: 0x10003AE14, symSize: 0xD0 }
  - { offsetInCU: 0x14766, offset: 0x14766, size: 0x8, addend: 0x0, symName: __ZNSt3__117__compressed_pairIPN6Market5StockERNS_9allocatorIS2_EEE6secondB8ue170006Ev, symObjAddr: 0x37220, symBinAddr: 0x10003AEE4, symSize: 0x110 }
  - { offsetInCU: 0x1478C, offset: 0x1478C, size: 0x8, addend: 0x0, symName: __ZNSt3__122__compressed_pair_elemIRNS_9allocatorIN6Market5StockEEELi1ELb0EE5__getB8ue170006Ev, symObjAddr: 0x37330, symBinAddr: 0x10003AFF4, symSize: 0xD8 }
  - { offsetInCU: 0x147B2, offset: 0x147B2, size: 0x8, addend: 0x0, symName: __ZNSt3__117__compressed_pairIPN6Market5StockERNS_9allocatorIS2_EEE5firstB8ue170006Ev, symObjAddr: 0x37408, symBinAddr: 0x10003B0CC, symSize: 0x124 }
  - { offsetInCU: 0x147E2, offset: 0x147E2, size: 0x8, addend: 0x0, symName: __ZNSt3__114__split_bufferIN6Market5StockERNS_9allocatorIS2_EEE21_ConstructTransactionC1B8ue170006EPPS2_m, symObjAddr: 0x3752C, symBinAddr: 0x10003B1F0, symSize: 0x88 }
  - { offsetInCU: 0x14828, offset: 0x14828, size: 0x8, addend: 0x0, symName: __ZNSt3__114__split_bufferIN6Market5StockERNS_9allocatorIS2_EEE21_ConstructTransactionD1B8ue170006Ev, symObjAddr: 0x375B4, symBinAddr: 0x10003B278, symSize: 0x78 }
  - { offsetInCU: 0x14852, offset: 0x14852, size: 0x8, addend: 0x0, symName: __ZNSt3__114__split_bufferIN6Market5StockERNS_9allocatorIS2_EEE21_ConstructTransactionC2B8ue170006EPPS2_m, symObjAddr: 0x3762C, symBinAddr: 0x10003B2F0, symSize: 0x32C }
  - { offsetInCU: 0x14898, offset: 0x14898, size: 0x8, addend: 0x0, symName: __ZNSt3__114__split_bufferIN6Market5StockERNS_9allocatorIS2_EEE21_ConstructTransactionD2B8ue170006Ev, symObjAddr: 0x37958, symBinAddr: 0x10003B61C, symSize: 0x174 }
  - { offsetInCU: 0x148C2, offset: 0x148C2, size: 0x8, addend: 0x0, symName: __ZNKSt3__16vectorIN6Market5StockENS_9allocatorIS2_EEE17__annotate_deleteB8ue170006Ev, symObjAddr: 0x37ACC, symBinAddr: 0x10003B790, symSize: 0x388 }
  - { offsetInCU: 0x148E8, offset: 0x148E8, size: 0x8, addend: 0x0, symName: __ZNSt3__116reverse_iteratorIPN6Market5StockEEC1B8ue170006ES3_, symObjAddr: 0x3842C, symBinAddr: 0x10003C0F0, symSize: 0x80 }
  - { offsetInCU: 0x14920, offset: 0x14920, size: 0x8, addend: 0x0, symName: __ZNKSt3__116reverse_iteratorIPN6Market5StockEE4baseB8ue170006Ev, symObjAddr: 0x384AC, symBinAddr: 0x10003C170, symSize: 0xB0 }
  - { offsetInCU: 0x14946, offset: 0x14946, size: 0x8, addend: 0x0, symName: __ZNKSt3__16vectorIN6Market5StockENS_9allocatorIS2_EEE14__annotate_newB8ue170006Em, symObjAddr: 0x3871C, symBinAddr: 0x10003C3E0, symSize: 0x378 }
  - { offsetInCU: 0x1497B, offset: 0x1497B, size: 0x8, addend: 0x0, symName: __ZNSt3__129_AllocatorDestroyRangeReverseINS_9allocatorIN6Market5StockEEENS_16reverse_iteratorIPS3_EEEC1B8ue170006ERS4_RS7_SA_, symObjAddr: 0x38CD0, symBinAddr: 0x10003C994, symSize: 0x90 }
  - { offsetInCU: 0x149D8, offset: 0x149D8, size: 0x8, addend: 0x0, symName: __ZNSt3__116allocator_traitsINS_9allocatorIN6Market5StockEEEE9constructB8ue170006IS3_JS3_EvEEvRS4_PT_DpOT0_, symObjAddr: 0x38DFC, symBinAddr: 0x10003CAC0, symSize: 0x8C }
  - { offsetInCU: 0x14A2F, offset: 0x14A2F, size: 0x8, addend: 0x0, symName: __ZNKSt3__116reverse_iteratorIPN6Market5StockEEdeB8ue170006Ev, symObjAddr: 0x38EF4, symBinAddr: 0x10003CBB8, symSize: 0x184 }
  - { offsetInCU: 0x14A63, offset: 0x14A63, size: 0x8, addend: 0x0, symName: __ZNSt3__116reverse_iteratorIPN6Market5StockEEppB8ue170006Ev, symObjAddr: 0x39078, symBinAddr: 0x10003CD3C, symSize: 0x1B0 }
  - { offsetInCU: 0x14A89, offset: 0x14A89, size: 0x8, addend: 0x0, symName: __ZNSt3__128__exception_guard_exceptionsINS_29_AllocatorDestroyRangeReverseINS_9allocatorIN6Market5StockEEENS_16reverse_iteratorIPS4_EEEEE10__completeB8ue170006Ev, symObjAddr: 0x39228, symBinAddr: 0x10003CEEC, symSize: 0xD8 }
  - { offsetInCU: 0x14AAF, offset: 0x14AAF, size: 0x8, addend: 0x0, symName: __ZNSt3__128__exception_guard_exceptionsINS_29_AllocatorDestroyRangeReverseINS_9allocatorIN6Market5StockEEENS_16reverse_iteratorIPS4_EEEEED1B8ue170006Ev, symObjAddr: 0x39300, symBinAddr: 0x10003CFC4, symSize: 0x78 }
  - { offsetInCU: 0x14AD9, offset: 0x14AD9, size: 0x8, addend: 0x0, symName: __ZNSt3__128__exception_guard_exceptionsINS_29_AllocatorDestroyRangeReverseINS_9allocatorIN6Market5StockEEENS_16reverse_iteratorIPS4_EEEEEC1B8ue170006ES9_, symObjAddr: 0x39378, symBinAddr: 0x10003D03C, symSize: 0x84 }
  - { offsetInCU: 0x14B12, offset: 0x14B12, size: 0x8, addend: 0x0, symName: __ZNSt3__128__exception_guard_exceptionsINS_29_AllocatorDestroyRangeReverseINS_9allocatorIN6Market5StockEEENS_16reverse_iteratorIPS4_EEEEEC2B8ue170006ES9_, symObjAddr: 0x393FC, symBinAddr: 0x10003D0C0, symSize: 0xF8 }
  - { offsetInCU: 0x14B4B, offset: 0x14B4B, size: 0x8, addend: 0x0, symName: __ZNSt3__129_AllocatorDestroyRangeReverseINS_9allocatorIN6Market5StockEEENS_16reverse_iteratorIPS3_EEEC2B8ue170006ERS4_RS7_SA_, symObjAddr: 0x394F4, symBinAddr: 0x10003D1B8, symSize: 0x20C }
  - { offsetInCU: 0x14BA2, offset: 0x14BA2, size: 0x8, addend: 0x0, symName: __ZNSt3__19allocatorIN6Market5StockEE9constructB8ue170006IS2_JS2_EEEvPT_DpOT0_, symObjAddr: 0x39700, symBinAddr: 0x10003D3C4, symSize: 0xEC }
  - { offsetInCU: 0x14BF8, offset: 0x14BF8, size: 0x8, addend: 0x0, symName: __ZN6Market5StockC1EOS0_, symObjAddr: 0x397EC, symBinAddr: 0x10003D4B0, symSize: 0x80 }
  - { offsetInCU: 0x14C2E, offset: 0x14C2E, size: 0x8, addend: 0x0, symName: __ZN6Market5StockC2EOS0_, symObjAddr: 0x3986C, symBinAddr: 0x10003D530, symSize: 0x1D0 }
  - { offsetInCU: 0x14C64, offset: 0x14C64, size: 0x8, addend: 0x0, symName: __ZNSt3__114priority_queueIN6Market10TradeOrderENS_6vectorIS2_NS_9allocatorIS2_EEEENS1_5Stock13sellerCompareEEC1B8ue170006EOS9_, symObjAddr: 0x39A3C, symBinAddr: 0x10003D700, symSize: 0x80 }
  - { offsetInCU: 0x14C9D, offset: 0x14C9D, size: 0x8, addend: 0x0, symName: __ZNSt3__114priority_queueIN6Market10TradeOrderENS_6vectorIS2_NS_9allocatorIS2_EEEENS1_5Stock12buyerCompareEEC1B8ue170006EOS9_, symObjAddr: 0x39ABC, symBinAddr: 0x10003D780, symSize: 0x80 }
  - { offsetInCU: 0x14CD6, offset: 0x14CD6, size: 0x8, addend: 0x0, symName: __ZNSt3__114priority_queueIN6Market10TradeOrderENS_6vectorIS2_NS_9allocatorIS2_EEEENS1_5Stock13sellerCompareEEC2B8ue170006EOS9_, symObjAddr: 0x39B3C, symBinAddr: 0x10003D800, symSize: 0xC8 }
  - { offsetInCU: 0x14D0F, offset: 0x14D0F, size: 0x8, addend: 0x0, symName: __ZNSt3__16vectorIN6Market10TradeOrderENS_9allocatorIS2_EEEC1B8ue170006EOS5_, symObjAddr: 0x39C04, symBinAddr: 0x10003D8C8, symSize: 0x80 }
  - { offsetInCU: 0x14D4A, offset: 0x14D4A, size: 0x8, addend: 0x0, symName: __ZNSt3__16vectorIN6Market10TradeOrderENS_9allocatorIS2_EEEC2B8ue170006EOS5_, symObjAddr: 0x39C84, symBinAddr: 0x10003D948, symSize: 0x77C }
  - { offsetInCU: 0x14D87, offset: 0x14D87, size: 0x8, addend: 0x0, symName: __ZNSt3__16vectorIN6Market10TradeOrderENS_9allocatorIS2_EEE7__allocB8ue170006Ev, symObjAddr: 0x3A400, symBinAddr: 0x10003E0C4, symSize: 0xE4 }
  - { offsetInCU: 0x14DB3, offset: 0x14DB3, size: 0x8, addend: 0x0, symName: __ZNSt3__117__compressed_pairIPN6Market10TradeOrderENS_9allocatorIS2_EEEC1B8ue170006IDnS5_EEOT_OT0_, symObjAddr: 0x3A4E4, symBinAddr: 0x10003E1A8, symSize: 0x88 }
  - { offsetInCU: 0x14E0B, offset: 0x14E0B, size: 0x8, addend: 0x0, symName: __ZNSt3__16vectorIN6Market10TradeOrderENS_9allocatorIS2_EEE9__end_capB8ue170006Ev, symObjAddr: 0x3A56C, symBinAddr: 0x10003E230, symSize: 0x100 }
  - { offsetInCU: 0x14E31, offset: 0x14E31, size: 0x8, addend: 0x0, symName: __ZNSt3__117__compressed_pairIPN6Market10TradeOrderENS_9allocatorIS2_EEE6secondB8ue170006Ev, symObjAddr: 0x3A66C, symBinAddr: 0x10003E330, symSize: 0x108 }
  - { offsetInCU: 0x14E57, offset: 0x14E57, size: 0x8, addend: 0x0, symName: __ZNSt3__122__compressed_pair_elemINS_9allocatorIN6Market10TradeOrderEEELi1ELb1EE5__getB8ue170006Ev, symObjAddr: 0x3A774, symBinAddr: 0x10003E438, symSize: 0x74 }
  - { offsetInCU: 0x14E7D, offset: 0x14E7D, size: 0x8, addend: 0x0, symName: __ZNSt3__117__compressed_pairIPN6Market10TradeOrderENS_9allocatorIS2_EEEC2B8ue170006IDnS5_EEOT_OT0_, symObjAddr: 0x3A7E8, symBinAddr: 0x10003E4AC, symSize: 0x170 }
  - { offsetInCU: 0x14ED5, offset: 0x14ED5, size: 0x8, addend: 0x0, symName: __ZNSt3__122__compressed_pair_elemINS_9allocatorIN6Market10TradeOrderEEELi1ELb1EEC2B8ue170006IS4_vEEOT_, symObjAddr: 0x3A958, symBinAddr: 0x10003E61C, symSize: 0x58 }
  - { offsetInCU: 0x14F17, offset: 0x14F17, size: 0x8, addend: 0x0, symName: __ZNSt3__117__compressed_pairIPN6Market10TradeOrderENS_9allocatorIS2_EEE5firstB8ue170006Ev, symObjAddr: 0x3A9B0, symBinAddr: 0x10003E674, symSize: 0x124 }
  - { offsetInCU: 0x14F3D, offset: 0x14F3D, size: 0x8, addend: 0x0, symName: __ZNSt3__122__compressed_pair_elemIPN6Market10TradeOrderELi0ELb0EE5__getB8ue170006Ev, symObjAddr: 0x3AAD4, symBinAddr: 0x10003E798, symSize: 0xAC }
  - { offsetInCU: 0x14F63, offset: 0x14F63, size: 0x8, addend: 0x0, symName: __ZNSt3__114priority_queueIN6Market10TradeOrderENS_6vectorIS2_NS_9allocatorIS2_EEEENS1_5Stock12buyerCompareEEC2B8ue170006EOS9_, symObjAddr: 0x3AB80, symBinAddr: 0x10003E844, symSize: 0xC8 }
  - { offsetInCU: 0x14FA1, offset: 0x14FA1, size: 0x8, addend: 0x0, symName: __ZNSt3__119__to_address_helperINS_16reverse_iteratorIPN6Market5StockEEEvE6__callB8ue170006ERKS5_, symObjAddr: 0x3AC48, symBinAddr: 0x10003E90C, symSize: 0x70 }
  - { offsetInCU: 0x14FC4, offset: 0x14FC4, size: 0x8, addend: 0x0, symName: __ZNKSt3__116reverse_iteratorIPN6Market5StockEEptB8ue170006Ev, symObjAddr: 0x3ACB8, symBinAddr: 0x10003E97C, symSize: 0x6C }
  - { offsetInCU: 0x14FEA, offset: 0x14FEA, size: 0x8, addend: 0x0, symName: __ZNSt3__128__exception_guard_exceptionsINS_29_AllocatorDestroyRangeReverseINS_9allocatorIN6Market5StockEEENS_16reverse_iteratorIPS4_EEEEED2B8ue170006Ev, symObjAddr: 0x3AD24, symBinAddr: 0x10003E9E8, symSize: 0x17C }
  - { offsetInCU: 0x15014, offset: 0x15014, size: 0x8, addend: 0x0, symName: __ZNKSt3__129_AllocatorDestroyRangeReverseINS_9allocatorIN6Market5StockEEENS_16reverse_iteratorIPS3_EEEclB8ue170006Ev, symObjAddr: 0x3AEA0, symBinAddr: 0x10003EB64, symSize: 0x418 }
  - { offsetInCU: 0x1503B, offset: 0x1503B, size: 0x8, addend: 0x0, symName: __ZNSt3__116reverse_iteratorINS0_IPN6Market5StockEEEEC1B8ue170006ES4_, symObjAddr: 0x3B45C, symBinAddr: 0x10003F120, symSize: 0x29C }
  - { offsetInCU: 0x15078, offset: 0x15078, size: 0x8, addend: 0x0, symName: __ZNSt3__116allocator_traitsINS_9allocatorIN6Market5StockEEEE7destroyB8ue170006IS3_vEEvRS4_PT_, symObjAddr: 0x3BA1C, symBinAddr: 0x10003F6E0, symSize: 0x2C }
  - { offsetInCU: 0x150B5, offset: 0x150B5, size: 0x8, addend: 0x0, symName: __ZNSt3__116reverse_iteratorINS0_IPN6Market5StockEEEEppB8ue170006Ev, symObjAddr: 0x3BAB4, symBinAddr: 0x10003F778, symSize: 0x100 }
  - { offsetInCU: 0x150DB, offset: 0x150DB, size: 0x8, addend: 0x0, symName: __ZNKSt3__116reverse_iteratorINS0_IPN6Market5StockEEEE4baseB8ue170006Ev, symObjAddr: 0x3BBB4, symBinAddr: 0x10003F878, symSize: 0x258 }
  - { offsetInCU: 0x15102, offset: 0x15102, size: 0x8, addend: 0x0, symName: __ZNSt3__19allocatorIN6Market5StockEE7destroyB8ue170006EPS2_, symObjAddr: 0x3BE0C, symBinAddr: 0x10003FAD0, symSize: 0x9C }
  - { offsetInCU: 0x15136, offset: 0x15136, size: 0x8, addend: 0x0, symName: __ZN6Market5StockD1Ev, symObjAddr: 0x3BEA8, symBinAddr: 0x10003FB6C, symSize: 0x78 }
  - { offsetInCU: 0x15163, offset: 0x15163, size: 0x8, addend: 0x0, symName: __ZN6Market5StockD2Ev, symObjAddr: 0x3BF20, symBinAddr: 0x10003FBE4, symSize: 0x84 }
  - { offsetInCU: 0x15190, offset: 0x15190, size: 0x8, addend: 0x0, symName: __ZNSt3__114priority_queueIN6Market10TradeOrderENS_6vectorIS2_NS_9allocatorIS2_EEEENS1_5Stock12buyerCompareEED1Ev, symObjAddr: 0x3BFA4, symBinAddr: 0x10003FC68, symSize: 0x78 }
  - { offsetInCU: 0x151BD, offset: 0x151BD, size: 0x8, addend: 0x0, symName: __ZNSt3__114priority_queueIN6Market10TradeOrderENS_6vectorIS2_NS_9allocatorIS2_EEEENS1_5Stock13sellerCompareEED1Ev, symObjAddr: 0x3C01C, symBinAddr: 0x10003FCE0, symSize: 0x78 }
  - { offsetInCU: 0x151EA, offset: 0x151EA, size: 0x8, addend: 0x0, symName: __ZNSt3__114priority_queueIN6Market10TradeOrderENS_6vectorIS2_NS_9allocatorIS2_EEEENS1_5Stock12buyerCompareEED2Ev, symObjAddr: 0x3C094, symBinAddr: 0x10003FD58, symSize: 0x78 }
  - { offsetInCU: 0x15217, offset: 0x15217, size: 0x8, addend: 0x0, symName: __ZNSt3__16vectorIN6Market10TradeOrderENS_9allocatorIS2_EEED1B8ue170006Ev, symObjAddr: 0x3C10C, symBinAddr: 0x10003FDD0, symSize: 0x78 }
  - { offsetInCU: 0x15241, offset: 0x15241, size: 0x8, addend: 0x0, symName: __ZNSt3__16vectorIN6Market10TradeOrderENS_9allocatorIS2_EEED2B8ue170006Ev, symObjAddr: 0x3C184, symBinAddr: 0x10003FE48, symSize: 0x298 }
  - { offsetInCU: 0x1526C, offset: 0x1526C, size: 0x8, addend: 0x0, symName: __ZNSt3__16vectorIN6Market10TradeOrderENS_9allocatorIS2_EEE16__destroy_vectorC1B8ue170006ERS5_, symObjAddr: 0x3C41C, symBinAddr: 0x1000400E0, symSize: 0x80 }
  - { offsetInCU: 0x152A5, offset: 0x152A5, size: 0x8, addend: 0x0, symName: __ZNSt3__16vectorIN6Market10TradeOrderENS_9allocatorIS2_EEE16__destroy_vectorclB8ue170006Ev, symObjAddr: 0x3C49C, symBinAddr: 0x100040160, symSize: 0x43C }
  - { offsetInCU: 0x152CB, offset: 0x152CB, size: 0x8, addend: 0x0, symName: __ZNSt3__16vectorIN6Market10TradeOrderENS_9allocatorIS2_EEE16__destroy_vectorC2B8ue170006ERS5_, symObjAddr: 0x3C8D8, symBinAddr: 0x10004059C, symSize: 0x108 }
  - { offsetInCU: 0x15304, offset: 0x15304, size: 0x8, addend: 0x0, symName: __ZNSt3__16vectorIN6Market10TradeOrderENS_9allocatorIS2_EEE7__clearB8ue170006Ev, symObjAddr: 0x3C9E0, symBinAddr: 0x1000406A4, symSize: 0xB0 }
  - { offsetInCU: 0x1532A, offset: 0x1532A, size: 0x8, addend: 0x0, symName: __ZNKSt3__16vectorIN6Market10TradeOrderENS_9allocatorIS2_EEE17__annotate_deleteB8ue170006Ev, symObjAddr: 0x3CA90, symBinAddr: 0x100040754, symSize: 0x370 }
  - { offsetInCU: 0x15350, offset: 0x15350, size: 0x8, addend: 0x0, symName: __ZNSt3__116allocator_traitsINS_9allocatorIN6Market10TradeOrderEEEE10deallocateB8ue170006ERS4_PS3_m, symObjAddr: 0x3CE00, symBinAddr: 0x100040AC4, symSize: 0x34 }
  - { offsetInCU: 0x15392, offset: 0x15392, size: 0x8, addend: 0x0, symName: __ZNKSt3__16vectorIN6Market10TradeOrderENS_9allocatorIS2_EEE8capacityB8ue170006Ev, symObjAddr: 0x3CE34, symBinAddr: 0x100040AF8, symSize: 0x144 }
  - { offsetInCU: 0x153B8, offset: 0x153B8, size: 0x8, addend: 0x0, symName: __ZNSt3__16vectorIN6Market10TradeOrderENS_9allocatorIS2_EEE22__base_destruct_at_endB8ue170006EPS2_, symObjAddr: 0x3CF78, symBinAddr: 0x100040C3C, symSize: 0x1FC }
  - { offsetInCU: 0x153FC, offset: 0x153FC, size: 0x8, addend: 0x0, symName: __ZNSt3__116allocator_traitsINS_9allocatorIN6Market10TradeOrderEEEE7destroyB8ue170006IS3_vEEvRS4_PT_, symObjAddr: 0x3D174, symBinAddr: 0x100040E38, symSize: 0x2C }
  - { offsetInCU: 0x15439, offset: 0x15439, size: 0x8, addend: 0x0, symName: __ZNSt3__19allocatorIN6Market10TradeOrderEE7destroyB8ue170006EPS2_, symObjAddr: 0x3D1B4, symBinAddr: 0x100040E78, symSize: 0x4C }
  - { offsetInCU: 0x1546D, offset: 0x1546D, size: 0x8, addend: 0x0, symName: __ZNKSt3__16vectorIN6Market10TradeOrderENS_9allocatorIS2_EEE31__annotate_contiguous_containerEPKvS7_S7_S7_, symObjAddr: 0x3D200, symBinAddr: 0x100040EC4, symSize: 0x9C }
  - { offsetInCU: 0x154CF, offset: 0x154CF, size: 0x8, addend: 0x0, symName: __ZNKSt3__16vectorIN6Market10TradeOrderENS_9allocatorIS2_EEE4dataB8ue170006Ev, symObjAddr: 0x3D29C, symBinAddr: 0x100040F60, symSize: 0xB0 }
  - { offsetInCU: 0x154F5, offset: 0x154F5, size: 0x8, addend: 0x0, symName: __ZNKSt3__16vectorIN6Market10TradeOrderENS_9allocatorIS2_EEE4sizeB8ue170006Ev, symObjAddr: 0x3D34C, symBinAddr: 0x100041010, symSize: 0xF8 }
  - { offsetInCU: 0x1551B, offset: 0x1551B, size: 0x8, addend: 0x0, symName: __ZNSt3__19allocatorIN6Market10TradeOrderEE10deallocateB8ue170006EPS2_m, symObjAddr: 0x3D444, symBinAddr: 0x100041108, symSize: 0x78 }
  - { offsetInCU: 0x1555D, offset: 0x1555D, size: 0x8, addend: 0x0, symName: __ZNKSt3__16vectorIN6Market10TradeOrderENS_9allocatorIS2_EEE9__end_capB8ue170006Ev, symObjAddr: 0x3D4BC, symBinAddr: 0x100041180, symSize: 0x100 }
  - { offsetInCU: 0x15583, offset: 0x15583, size: 0x8, addend: 0x0, symName: __ZNKSt3__117__compressed_pairIPN6Market10TradeOrderENS_9allocatorIS2_EEE5firstB8ue170006Ev, symObjAddr: 0x3D5BC, symBinAddr: 0x100041280, symSize: 0x124 }
  - { offsetInCU: 0x155A9, offset: 0x155A9, size: 0x8, addend: 0x0, symName: __ZNKSt3__122__compressed_pair_elemIPN6Market10TradeOrderELi0ELb0EE5__getB8ue170006Ev, symObjAddr: 0x3D6E0, symBinAddr: 0x1000413A4, symSize: 0xAC }
  - { offsetInCU: 0x155CF, offset: 0x155CF, size: 0x8, addend: 0x0, symName: __ZNSt3__114priority_queueIN6Market10TradeOrderENS_6vectorIS2_NS_9allocatorIS2_EEEENS1_5Stock13sellerCompareEED2Ev, symObjAddr: 0x3D78C, symBinAddr: 0x100041450, symSize: 0x78 }
  - { offsetInCU: 0x15601, offset: 0x15601, size: 0x8, addend: 0x0, symName: __ZNSt3__119__to_address_helperINS_16reverse_iteratorINS1_IPN6Market5StockEEEEEvE6__callB8ue170006ERKS6_, symObjAddr: 0x3D804, symBinAddr: 0x1000414C8, symSize: 0x70 }
  - { offsetInCU: 0x15624, offset: 0x15624, size: 0x8, addend: 0x0, symName: __ZNKSt3__116reverse_iteratorINS0_IPN6Market5StockEEEEptB8ue170006Ev, symObjAddr: 0x3D874, symBinAddr: 0x100041538, symSize: 0x6C }
  - { offsetInCU: 0x1564A, offset: 0x1564A, size: 0x8, addend: 0x0, symName: __ZNKSt3__116reverse_iteratorINS0_IPN6Market5StockEEEEdeB8ue170006Ev, symObjAddr: 0x3D8E0, symBinAddr: 0x1000415A4, symSize: 0x2C4 }
  - { offsetInCU: 0x15683, offset: 0x15683, size: 0x8, addend: 0x0, symName: __ZNSt3__116reverse_iteratorIPN6Market5StockEEmmB8ue170006Ev, symObjAddr: 0x3DBA4, symBinAddr: 0x100041868, symSize: 0x1B0 }
  - { offsetInCU: 0x156A9, offset: 0x156A9, size: 0x8, addend: 0x0, symName: __ZNSt3__116reverse_iteratorINS0_IPN6Market5StockEEEEC2B8ue170006ES4_, symObjAddr: 0x3DD54, symBinAddr: 0x100041A18, symSize: 0x284 }
  - { offsetInCU: 0x156E6, offset: 0x156E6, size: 0x8, addend: 0x0, symName: __ZNSt3__116reverse_iteratorIPN6Market5StockEEC2B8ue170006ES3_, symObjAddr: 0x3DFD8, symBinAddr: 0x100041C9C, symSize: 0x10C }
  - { offsetInCU: 0x1571E, offset: 0x1571E, size: 0x8, addend: 0x0, symName: __ZNSt3__114__split_bufferIN6Market5StockERNS_9allocatorIS2_EEED2Ev, symObjAddr: 0x3E0E4, symBinAddr: 0x100041DA8, symSize: 0x16C }
  - { offsetInCU: 0x1574A, offset: 0x1574A, size: 0x8, addend: 0x0, symName: __ZNSt3__114__split_bufferIN6Market5StockERNS_9allocatorIS2_EEE5clearB8ue170006Ev, symObjAddr: 0x3E250, symBinAddr: 0x100041F14, symSize: 0xB4 }
  - { offsetInCU: 0x15770, offset: 0x15770, size: 0x8, addend: 0x0, symName: __ZNSt3__116allocator_traitsINS_9allocatorIN6Market5StockEEEE10deallocateB8ue170006ERS4_PS3_m, symObjAddr: 0x3E304, symBinAddr: 0x100041FC8, symSize: 0x34 }
  - { offsetInCU: 0x157B2, offset: 0x157B2, size: 0x8, addend: 0x0, symName: __ZNKSt3__114__split_bufferIN6Market5StockERNS_9allocatorIS2_EEE8capacityB8ue170006Ev, symObjAddr: 0x3E338, symBinAddr: 0x100041FFC, symSize: 0x144 }
  - { offsetInCU: 0x157D8, offset: 0x157D8, size: 0x8, addend: 0x0, symName: __ZNSt3__114__split_bufferIN6Market5StockERNS_9allocatorIS2_EEE17__destruct_at_endB8ue170006EPS2_, symObjAddr: 0x3E47C, symBinAddr: 0x100042140, symSize: 0x74 }
  - { offsetInCU: 0x1580C, offset: 0x1580C, size: 0x8, addend: 0x0, symName: __ZNSt3__114__split_bufferIN6Market5StockERNS_9allocatorIS2_EEE17__destruct_at_endB8ue170006EPS2_NS_17integral_constantIbLb0EEE, symObjAddr: 0x3E4F0, symBinAddr: 0x1000421B4, symSize: 0x224 }
  - { offsetInCU: 0x1584D, offset: 0x1584D, size: 0x8, addend: 0x0, symName: __ZNSt3__19allocatorIN6Market5StockEE10deallocateB8ue170006EPS2_m, symObjAddr: 0x3E714, symBinAddr: 0x1000423D8, symSize: 0x7C }
  - { offsetInCU: 0x1588F, offset: 0x1588F, size: 0x8, addend: 0x0, symName: __ZNKSt3__114__split_bufferIN6Market5StockERNS_9allocatorIS2_EEE9__end_capB8ue170006Ev, symObjAddr: 0x3E790, symBinAddr: 0x100042454, symSize: 0x100 }
  - { offsetInCU: 0x158B5, offset: 0x158B5, size: 0x8, addend: 0x0, symName: __ZNKSt3__117__compressed_pairIPN6Market5StockERNS_9allocatorIS2_EEE5firstB8ue170006Ev, symObjAddr: 0x3E890, symBinAddr: 0x100042554, symSize: 0x124 }
  - { offsetInCU: 0x158DB, offset: 0x158DB, size: 0x8, addend: 0x0, symName: __ZNSt3__16vectorIN6Market5StockENS_9allocatorIS2_EEE22__base_destruct_at_endB8ue170006EPS2_, symObjAddr: 0x3E9B4, symBinAddr: 0x100042678, symSize: 0x1FC }
  - { offsetInCU: 0x1591F, offset: 0x1591F, size: 0x8, addend: 0x0, symName: __ZNSt3__19basic_iosIcNS_11char_traitsIcEEEC2B8ue170006Ev, symObjAddr: 0x3EBB0, symBinAddr: 0x100042874, symSize: 0x118 }
  - { offsetInCU: 0x15949, offset: 0x15949, size: 0x8, addend: 0x0, symName: __ZNSt3__114basic_iostreamIcNS_11char_traitsIcEEEC2B8ue170006EPNS_15basic_streambufIcS2_EE, symObjAddr: 0x3ECC8, symBinAddr: 0x10004298C, symSize: 0x33C }
  - { offsetInCU: 0x1598F, offset: 0x1598F, size: 0x8, addend: 0x0, symName: __ZNSt3__115basic_stringbufIcNS_11char_traitsIcEENS_9allocatorIcEEEC1B8ue170006Ej, symObjAddr: 0x3F004, symBinAddr: 0x100042CC8, symSize: 0x80 }
  - { offsetInCU: 0x159C8, offset: 0x159C8, size: 0x8, addend: 0x0, symName: __ZNSt3__18ios_baseC2B8ue170006Ev, symObjAddr: 0x3F084, symBinAddr: 0x100042D48, symSize: 0xCC }
  - { offsetInCU: 0x159F2, offset: 0x159F2, size: 0x8, addend: 0x0, symName: __ZNSt3__113basic_istreamIcNS_11char_traitsIcEEEC2B8ue170006EPNS_15basic_streambufIcS2_EE, symObjAddr: 0x3F150, symBinAddr: 0x100042E14, symSize: 0x3B8 }
  - { offsetInCU: 0x15A37, offset: 0x15A37, size: 0x8, addend: 0x0, symName: __ZNSt3__113basic_ostreamIcNS_11char_traitsIcEEEC2B8ue170006Ev, symObjAddr: 0x3F508, symBinAddr: 0x1000431CC, symSize: 0x1CC }
  - { offsetInCU: 0x15A6E, offset: 0x15A6E, size: 0x8, addend: 0x0, symName: __ZNSt3__19basic_iosIcNS_11char_traitsIcEEE4initB8ue170006EPNS_15basic_streambufIcS2_EE, symObjAddr: 0x3F6D4, symBinAddr: 0x100043398, symSize: 0x2C8 }
  - { offsetInCU: 0x15AA5, offset: 0x15AA5, size: 0x8, addend: 0x0, symName: __ZNSt3__115basic_stringbufIcNS_11char_traitsIcEENS_9allocatorIcEEEC2B8ue170006Ej, symObjAddr: 0x3F99C, symBinAddr: 0x100043660, symSize: 0x1CC }
  - { offsetInCU: 0x15ADE, offset: 0x15ADE, size: 0x8, addend: 0x0, symName: __ZN8P2random4PrngC1Ey, symObjAddr: 0x3FB68, symBinAddr: 0x10004382C, symSize: 0x80 }
  - { offsetInCU: 0x15B16, offset: 0x15B16, size: 0x8, addend: 0x0, symName: __ZN8P2random4PrngclEv, symObjAddr: 0x3FBE8, symBinAddr: 0x1000438AC, symSize: 0x294 }
  - { offsetInCU: 0x15B66, offset: 0x15B66, size: 0x8, addend: 0x0, symName: __ZN8P2random4PrngC2Ey, symObjAddr: 0x3FE7C, symBinAddr: 0x100043B40, symSize: 0x11C }
  - { offsetInCU: 0x15B9E, offset: 0x15B9E, size: 0x8, addend: 0x0, symName: __ZN8P2random4Prng6reseedEy, symObjAddr: 0x3FF98, symBinAddr: 0x100043C5C, symSize: 0x84 }
  - { offsetInCU: 0x15BD2, offset: 0x15BD2, size: 0x8, addend: 0x0, symName: __ZN8P2random4Prng6reseedEyy, symObjAddr: 0x4001C, symBinAddr: 0x100043CE0, symSize: 0x184 }
  - { offsetInCU: 0x15C14, offset: 0x15C14, size: 0x8, addend: 0x0, symName: __ZNKSt3__19basic_iosIcNS_11char_traitsIcEEE4failB8ue170006Ev, symObjAddr: 0x401A0, symBinAddr: 0x100043E64, symSize: 0x124 }
  - { offsetInCU: 0x15C3A, offset: 0x15C3A, size: 0x8, addend: 0x0, symName: __ZNKSt3__18ios_base4failB8ue170006Ev, symObjAddr: 0x402C4, symBinAddr: 0x100043F88, symSize: 0x170 }
  - { offsetInCU: 0x15C62, offset: 0x15C62, size: 0x8, addend: 0x0, symName: __ZNSt3__16vectorIN6Market10TradeOrderENS_9allocatorIS2_EEE9push_backB8ue170006ERKS2_, symObjAddr: 0x40434, symBinAddr: 0x1000440F8, symSize: 0x1FC }
  - { offsetInCU: 0x15C99, offset: 0x15C99, size: 0x8, addend: 0x0, symName: __ZNSt3__16vectorIN6Market10TradeOrderENS_9allocatorIS2_EEE5beginB8ue170006Ev, symObjAddr: 0x4099C, symBinAddr: 0x100044660, symSize: 0x2B0 }
  - { offsetInCU: 0x15CC2, offset: 0x15CC2, size: 0x8, addend: 0x0, symName: __ZNSt3__16vectorIN6Market10TradeOrderENS_9allocatorIS2_EEE3endB8ue170006Ev, symObjAddr: 0x40C4C, symBinAddr: 0x100044910, symSize: 0x2B4 }
  - { offsetInCU: 0x15CEB, offset: 0x15CEB, size: 0x8, addend: 0x0, symName: __ZNSt3__16vectorIN6Market10TradeOrderENS_9allocatorIS2_EEE22__construct_one_at_endB8ue170006IJRKS2_EEEvDpOT_, symObjAddr: 0x40F00, symBinAddr: 0x100044BC4, symSize: 0x550 }
  - { offsetInCU: 0x15D40, offset: 0x15D40, size: 0x8, addend: 0x0, symName: __ZNSt3__16vectorIN6Market10TradeOrderENS_9allocatorIS2_EEE21__push_back_slow_pathIRKS2_EEvOT_, symObjAddr: 0x41450, symBinAddr: 0x100045114, symSize: 0x5B0 }
  - { offsetInCU: 0x15DBE, offset: 0x15DBE, size: 0x8, addend: 0x0, symName: __ZNSt3__16vectorIN6Market10TradeOrderENS_9allocatorIS2_EEE21_ConstructTransactionC1B8ue170006ERS5_m, symObjAddr: 0x41A00, symBinAddr: 0x1000456C4, symSize: 0x88 }
  - { offsetInCU: 0x15E06, offset: 0x15E06, size: 0x8, addend: 0x0, symName: __ZNSt3__116allocator_traitsINS_9allocatorIN6Market10TradeOrderEEEE9constructB8ue170006IS3_JRKS3_EvEEvRS4_PT_DpOT0_, symObjAddr: 0x41A88, symBinAddr: 0x10004574C, symSize: 0x8C }
  - { offsetInCU: 0x15E5D, offset: 0x15E5D, size: 0x8, addend: 0x0, symName: __ZNSt3__16vectorIN6Market10TradeOrderENS_9allocatorIS2_EEE21_ConstructTransactionD1B8ue170006Ev, symObjAddr: 0x41B14, symBinAddr: 0x1000457D8, symSize: 0x78 }
  - { offsetInCU: 0x15E87, offset: 0x15E87, size: 0x8, addend: 0x0, symName: __ZNSt3__16vectorIN6Market10TradeOrderENS_9allocatorIS2_EEE21_ConstructTransactionC2B8ue170006ERS5_m, symObjAddr: 0x41B8C, symBinAddr: 0x100045850, symSize: 0x3D8 }
  - { offsetInCU: 0x15ECF, offset: 0x15ECF, size: 0x8, addend: 0x0, symName: __ZNKSt3__16vectorIN6Market10TradeOrderENS_9allocatorIS2_EEE19__annotate_increaseB8ue170006Em, symObjAddr: 0x41F64, symBinAddr: 0x100045C28, symSize: 0x44C }
  - { offsetInCU: 0x15F04, offset: 0x15F04, size: 0x8, addend: 0x0, symName: __ZNSt3__19allocatorIN6Market10TradeOrderEE9constructB8ue170006IS2_JRKS2_EEEvPT_DpOT0_, symObjAddr: 0x423B0, symBinAddr: 0x100046074, symSize: 0xA8 }
  - { offsetInCU: 0x15F5A, offset: 0x15F5A, size: 0x8, addend: 0x0, symName: __ZNSt3__16vectorIN6Market10TradeOrderENS_9allocatorIS2_EEE21_ConstructTransactionD2B8ue170006Ev, symObjAddr: 0x42458, symBinAddr: 0x10004611C, symSize: 0x390 }
  - { offsetInCU: 0x15F84, offset: 0x15F84, size: 0x8, addend: 0x0, symName: __ZNKSt3__16vectorIN6Market10TradeOrderENS_9allocatorIS2_EEE17__annotate_shrinkB8ue170006Em, symObjAddr: 0x427E8, symBinAddr: 0x1000464AC, symSize: 0x360 }
  - { offsetInCU: 0x15FB9, offset: 0x15FB9, size: 0x8, addend: 0x0, symName: __ZNKSt3__16vectorIN6Market10TradeOrderENS_9allocatorIS2_EEE11__recommendB8ue170006Em, symObjAddr: 0x42B48, symBinAddr: 0x10004680C, symSize: 0x45C }
  - { offsetInCU: 0x16015, offset: 0x16015, size: 0x8, addend: 0x0, symName: __ZNSt3__114__split_bufferIN6Market10TradeOrderERNS_9allocatorIS2_EEEC1EmmS5_, symObjAddr: 0x42FA4, symBinAddr: 0x100046C68, symSize: 0x90 }
  - { offsetInCU: 0x1606B, offset: 0x1606B, size: 0x8, addend: 0x0, symName: __ZNSt3__114__split_bufferIN6Market10TradeOrderERNS_9allocatorIS2_EEED1Ev, symObjAddr: 0x43890, symBinAddr: 0x100047554, symSize: 0x78 }
  - { offsetInCU: 0x16097, offset: 0x16097, size: 0x8, addend: 0x0, symName: __ZNKSt3__16vectorIN6Market10TradeOrderENS_9allocatorIS2_EEE8max_sizeEv, symObjAddr: 0x43908, symBinAddr: 0x1000475CC, symSize: 0x3B8 }
  - { offsetInCU: 0x160C0, offset: 0x160C0, size: 0x8, addend: 0x0, symName: __ZNKSt3__16vectorIN6Market10TradeOrderENS_9allocatorIS2_EEE20__throw_length_errorB8ue170006Ev, symObjAddr: 0x43CC0, symBinAddr: 0x100047984, symSize: 0x80 }
  - { offsetInCU: 0x160F0, offset: 0x160F0, size: 0x8, addend: 0x0, symName: __ZNSt3__116allocator_traitsINS_9allocatorIN6Market10TradeOrderEEEE8max_sizeB8ue170006IS4_vEEmRKS4_, symObjAddr: 0x43D40, symBinAddr: 0x100047A04, symSize: 0x24 }
  - { offsetInCU: 0x1611E, offset: 0x1611E, size: 0x8, addend: 0x0, symName: __ZNKSt3__16vectorIN6Market10TradeOrderENS_9allocatorIS2_EEE7__allocB8ue170006Ev, symObjAddr: 0x43D64, symBinAddr: 0x100047A28, symSize: 0xE4 }
  - { offsetInCU: 0x16144, offset: 0x16144, size: 0x8, addend: 0x0, symName: __ZNKSt3__19allocatorIN6Market10TradeOrderEE8max_sizeB8ue170006Ev, symObjAddr: 0x43E48, symBinAddr: 0x100047B0C, symSize: 0x4C }
  - { offsetInCU: 0x1616A, offset: 0x1616A, size: 0x8, addend: 0x0, symName: __ZNKSt3__117__compressed_pairIPN6Market10TradeOrderENS_9allocatorIS2_EEE6secondB8ue170006Ev, symObjAddr: 0x43E94, symBinAddr: 0x100047B58, symSize: 0x108 }
  - { offsetInCU: 0x16190, offset: 0x16190, size: 0x8, addend: 0x0, symName: __ZNKSt3__122__compressed_pair_elemINS_9allocatorIN6Market10TradeOrderEEELi1ELb1EE5__getB8ue170006Ev, symObjAddr: 0x43F9C, symBinAddr: 0x100047C60, symSize: 0x74 }
  - { offsetInCU: 0x161B6, offset: 0x161B6, size: 0x8, addend: 0x0, symName: __ZNSt3__114__split_bufferIN6Market10TradeOrderERNS_9allocatorIS2_EEEC2EmmS5_, symObjAddr: 0x44010, symBinAddr: 0x100047CD4, symSize: 0x7D8 }
  - { offsetInCU: 0x16231, offset: 0x16231, size: 0x8, addend: 0x0, symName: __ZNSt3__117__compressed_pairIPN6Market10TradeOrderERNS_9allocatorIS2_EEEC1B8ue170006IDnS6_EEOT_OT0_, symObjAddr: 0x447E8, symBinAddr: 0x1000484AC, symSize: 0x88 }
  - { offsetInCU: 0x16289, offset: 0x16289, size: 0x8, addend: 0x0, symName: __ZNSt3__114__split_bufferIN6Market10TradeOrderERNS_9allocatorIS2_EEE7__allocB8ue170006Ev, symObjAddr: 0x44AFC, symBinAddr: 0x1000487C0, symSize: 0xE4 }
  - { offsetInCU: 0x162AF, offset: 0x162AF, size: 0x8, addend: 0x0, symName: __ZNSt3__114__split_bufferIN6Market10TradeOrderERNS_9allocatorIS2_EEE9__end_capB8ue170006Ev, symObjAddr: 0x44BE0, symBinAddr: 0x1000488A4, symSize: 0x100 }
  - { offsetInCU: 0x162D5, offset: 0x162D5, size: 0x8, addend: 0x0, symName: __ZNSt3__117__compressed_pairIPN6Market10TradeOrderERNS_9allocatorIS2_EEEC2B8ue170006IDnS6_EEOT_OT0_, symObjAddr: 0x44CE0, symBinAddr: 0x1000489A4, symSize: 0x198 }
  - { offsetInCU: 0x1632D, offset: 0x1632D, size: 0x8, addend: 0x0, symName: __ZNSt3__122__compressed_pair_elemIRNS_9allocatorIN6Market10TradeOrderEEELi1ELb0EEC2B8ue170006IS5_vEEOT_, symObjAddr: 0x44E78, symBinAddr: 0x100048B3C, symSize: 0xEC }
  - { offsetInCU: 0x1636F, offset: 0x1636F, size: 0x8, addend: 0x0, symName: __ZNSt3__19allocatorIN6Market10TradeOrderEE8allocateB8ue170006Em, symObjAddr: 0x44F64, symBinAddr: 0x100048C28, symSize: 0xCC }
  - { offsetInCU: 0x163A3, offset: 0x163A3, size: 0x8, addend: 0x0, symName: __ZNSt3__117__compressed_pairIPN6Market10TradeOrderERNS_9allocatorIS2_EEE6secondB8ue170006Ev, symObjAddr: 0x45030, symBinAddr: 0x100048CF4, symSize: 0x110 }
  - { offsetInCU: 0x163C9, offset: 0x163C9, size: 0x8, addend: 0x0, symName: __ZNSt3__122__compressed_pair_elemIRNS_9allocatorIN6Market10TradeOrderEEELi1ELb0EE5__getB8ue170006Ev, symObjAddr: 0x45140, symBinAddr: 0x100048E04, symSize: 0xD8 }
  - { offsetInCU: 0x163EF, offset: 0x163EF, size: 0x8, addend: 0x0, symName: __ZNSt3__117__compressed_pairIPN6Market10TradeOrderERNS_9allocatorIS2_EEE5firstB8ue170006Ev, symObjAddr: 0x45218, symBinAddr: 0x100048EDC, symSize: 0x124 }
  - { offsetInCU: 0x16415, offset: 0x16415, size: 0x8, addend: 0x0, symName: __ZNSt3__116reverse_iteratorIPN6Market10TradeOrderEEC1B8ue170006ES3_, symObjAddr: 0x457E4, symBinAddr: 0x1000494A8, symSize: 0x80 }
  - { offsetInCU: 0x1644D, offset: 0x1644D, size: 0x8, addend: 0x0, symName: __ZNKSt3__116reverse_iteratorIPN6Market10TradeOrderEE4baseB8ue170006Ev, symObjAddr: 0x45864, symBinAddr: 0x100049528, symSize: 0xB0 }
  - { offsetInCU: 0x16473, offset: 0x16473, size: 0x8, addend: 0x0, symName: __ZNKSt3__16vectorIN6Market10TradeOrderENS_9allocatorIS2_EEE14__annotate_newB8ue170006Em, symObjAddr: 0x45AD4, symBinAddr: 0x100049798, symSize: 0x360 }
  - { offsetInCU: 0x164C2, offset: 0x164C2, size: 0x8, addend: 0x0, symName: __ZNKSt3__111__move_loopINS_17_ClassicAlgPolicyEEclB8ue170006INS_16reverse_iteratorIPN6Market10TradeOrderEEES8_S8_EENS_4pairIT_T1_EESA_T0_SB_, symObjAddr: 0x477F4, symBinAddr: 0x10004B4B8, symSize: 0x370 }
  - { offsetInCU: 0x16540, offset: 0x16540, size: 0x8, addend: 0x0, symName: __ZNSt3__18_IterOpsINS_17_ClassicAlgPolicyEE11__iter_moveB8ue170006IRNS_16reverse_iteratorIPN6Market10TradeOrderEEEEENS_9enable_ifIXsr12is_referenceIDTdeclsr3stdE7declvalIRT_EEEEE5valueEDTclsr3stdE4movedeclsr3stdE7declvalISC_EEEEE4typeEOSB_, symObjAddr: 0x487B0, symBinAddr: 0x10004C474, symSize: 0xB8 }
  - { offsetInCU: 0x1656C, offset: 0x1656C, size: 0x8, addend: 0x0, symName: __ZNKSt3__116reverse_iteratorIPN6Market10TradeOrderEEdeB8ue170006Ev, symObjAddr: 0x48868, symBinAddr: 0x10004C52C, symSize: 0x184 }
  - { offsetInCU: 0x165A0, offset: 0x165A0, size: 0x8, addend: 0x0, symName: __ZNSt3__116reverse_iteratorIPN6Market10TradeOrderEEppB8ue170006Ev, symObjAddr: 0x489EC, symBinAddr: 0x10004C6B0, symSize: 0x1B0 }
  - { offsetInCU: 0x165C6, offset: 0x165C6, size: 0x8, addend: 0x0, symName: __ZNSt3__18_IterOpsINS_17_ClassicAlgPolicyEE25__validate_iter_referenceB8ue170006IRNS_16reverse_iteratorIPN6Market10TradeOrderEEEEEvv, symObjAddr: 0x48B9C, symBinAddr: 0x10004C860, symSize: 0x4 }
  - { offsetInCU: 0x165E4, offset: 0x165E4, size: 0x8, addend: 0x0, symName: __ZNSt3__118__unwrap_iter_implINS_16reverse_iteratorIPN6Market10TradeOrderEEELb0EE8__unwrapB8ue170006ES5_, symObjAddr: 0x48BA0, symBinAddr: 0x10004C864, symSize: 0x274 }
  - { offsetInCU: 0x16611, offset: 0x16611, size: 0x8, addend: 0x0, symName: __ZNSt3__14pairINS_16reverse_iteratorIPN6Market10TradeOrderEEES5_EC1B8ue170006IS5_S5_LPv0EEEOT_OT0_, symObjAddr: 0x48E14, symBinAddr: 0x10004CAD8, symSize: 0x88 }
  - { offsetInCU: 0x1666F, offset: 0x1666F, size: 0x8, addend: 0x0, symName: __ZNSt3__14pairINS_16reverse_iteratorIPN6Market10TradeOrderEEES5_EC2B8ue170006IS5_S5_LPv0EEEOT_OT0_, symObjAddr: 0x48E9C, symBinAddr: 0x10004CB60, symSize: 0xA0 }
  - { offsetInCU: 0x166CD, offset: 0x166CD, size: 0x8, addend: 0x0, symName: __ZNSt3__118__unwrap_iter_implINS_16reverse_iteratorIPN6Market10TradeOrderEEELb0EE8__rewrapB8ue170006ES5_S5_, symObjAddr: 0x48F3C, symBinAddr: 0x10004CC00, symSize: 0x2E0 }
  - { offsetInCU: 0x16703, offset: 0x16703, size: 0x8, addend: 0x0, symName: __ZNSt3__116reverse_iteratorIPN6Market10TradeOrderEEC2B8ue170006ES3_, symObjAddr: 0x4921C, symBinAddr: 0x10004CEE0, symSize: 0x10C }
  - { offsetInCU: 0x1673B, offset: 0x1673B, size: 0x8, addend: 0x0, symName: __ZNSt3__114__split_bufferIN6Market10TradeOrderERNS_9allocatorIS2_EEED2Ev, symObjAddr: 0x49328, symBinAddr: 0x10004CFEC, symSize: 0x16C }
  - { offsetInCU: 0x16767, offset: 0x16767, size: 0x8, addend: 0x0, symName: __ZNSt3__114__split_bufferIN6Market10TradeOrderERNS_9allocatorIS2_EEE5clearB8ue170006Ev, symObjAddr: 0x49494, symBinAddr: 0x10004D158, symSize: 0xB4 }
  - { offsetInCU: 0x1678D, offset: 0x1678D, size: 0x8, addend: 0x0, symName: __ZNKSt3__114__split_bufferIN6Market10TradeOrderERNS_9allocatorIS2_EEE8capacityB8ue170006Ev, symObjAddr: 0x49548, symBinAddr: 0x10004D20C, symSize: 0x144 }
  - { offsetInCU: 0x167B3, offset: 0x167B3, size: 0x8, addend: 0x0, symName: __ZNSt3__114__split_bufferIN6Market10TradeOrderERNS_9allocatorIS2_EEE17__destruct_at_endB8ue170006EPS2_, symObjAddr: 0x4968C, symBinAddr: 0x10004D350, symSize: 0x74 }
  - { offsetInCU: 0x167E7, offset: 0x167E7, size: 0x8, addend: 0x0, symName: __ZNSt3__114__split_bufferIN6Market10TradeOrderERNS_9allocatorIS2_EEE17__destruct_at_endB8ue170006EPS2_NS_17integral_constantIbLb0EEE, symObjAddr: 0x49700, symBinAddr: 0x10004D3C4, symSize: 0x224 }
  - { offsetInCU: 0x16828, offset: 0x16828, size: 0x8, addend: 0x0, symName: __ZNKSt3__114__split_bufferIN6Market10TradeOrderERNS_9allocatorIS2_EEE9__end_capB8ue170006Ev, symObjAddr: 0x49924, symBinAddr: 0x10004D5E8, symSize: 0x100 }
  - { offsetInCU: 0x1684E, offset: 0x1684E, size: 0x8, addend: 0x0, symName: __ZNKSt3__117__compressed_pairIPN6Market10TradeOrderERNS_9allocatorIS2_EEE5firstB8ue170006Ev, symObjAddr: 0x49A24, symBinAddr: 0x10004D6E8, symSize: 0x124 }
  - { offsetInCU: 0x16874, offset: 0x16874, size: 0x8, addend: 0x0, symName: __ZNKSt3__111__wrap_iterIPN6Market10TradeOrderEE4baseB8ue170006Ev, symObjAddr: 0x4A6D0, symBinAddr: 0x10004E394, symSize: 0xAC }
  - { offsetInCU: 0x1689A, offset: 0x1689A, size: 0x8, addend: 0x0, symName: __ZNKSt3__111__wrap_iterIPN6Market10TradeOrderEEplB8ue170006El, symObjAddr: 0x4A77C, symBinAddr: 0x10004E440, symSize: 0x258 }
  - { offsetInCU: 0x168E2, offset: 0x168E2, size: 0x8, addend: 0x0, symName: __ZNK6Market5Stock13sellerCompareclERKNS_10TradeOrderES4_, symObjAddr: 0x4A9D4, symBinAddr: 0x10004E698, symSize: 0x45C }
  - { offsetInCU: 0x16926, offset: 0x16926, size: 0x8, addend: 0x0, symName: __ZNKSt3__111__wrap_iterIPN6Market10TradeOrderEEdeB8ue170006Ev, symObjAddr: 0x4AE30, symBinAddr: 0x10004EAF4, symSize: 0xF4 }
  - { offsetInCU: 0x1694C, offset: 0x1694C, size: 0x8, addend: 0x0, symName: __ZNSt3__111__wrap_iterIPN6Market10TradeOrderEEmmB8ue170006Ev, symObjAddr: 0x4AF24, symBinAddr: 0x10004EBE8, symSize: 0x1A8 }
  - { offsetInCU: 0x16972, offset: 0x16972, size: 0x8, addend: 0x0, symName: __ZNSt3__18_IterOpsINS_17_ClassicAlgPolicyEE11__iter_moveB8ue170006IRNS_11__wrap_iterIPN6Market10TradeOrderEEEEENS_9enable_ifIXsr12is_referenceIDTdeclsr3stdE7declvalIRT_EEEEE5valueEDTclsr3stdE4movedeclsr3stdE7declvalISC_EEEEE4typeEOSB_, symObjAddr: 0x4B0CC, symBinAddr: 0x10004ED90, symSize: 0xB8 }
  - { offsetInCU: 0x1699E, offset: 0x1699E, size: 0x8, addend: 0x0, symName: __ZNSt3__111__wrap_iterIPN6Market10TradeOrderEEpLB8ue170006El, symObjAddr: 0x4B184, symBinAddr: 0x10004EE48, symSize: 0x228 }
  - { offsetInCU: 0x169D2, offset: 0x169D2, size: 0x8, addend: 0x0, symName: __ZNSt3__18_IterOpsINS_17_ClassicAlgPolicyEE25__validate_iter_referenceB8ue170006IRNS_11__wrap_iterIPN6Market10TradeOrderEEEEEvv, symObjAddr: 0x4B3AC, symBinAddr: 0x10004F070, symSize: 0x4 }
  - { offsetInCU: 0x169F0, offset: 0x169F0, size: 0x8, addend: 0x0, symName: __ZNSt3__16vectorIN6Market10TradeOrderENS_9allocatorIS2_EEE11__make_iterB8ue170006EPS2_, symObjAddr: 0x4B3B0, symBinAddr: 0x10004F074, symSize: 0x244 }
  - { offsetInCU: 0x16A27, offset: 0x16A27, size: 0x8, addend: 0x0, symName: __ZNSt3__111__wrap_iterIPN6Market10TradeOrderEEC1B8ue170006ES3_, symObjAddr: 0x4B5F4, symBinAddr: 0x10004F2B8, symSize: 0x80 }
  - { offsetInCU: 0x16A5F, offset: 0x16A5F, size: 0x8, addend: 0x0, symName: __ZNSt3__111__wrap_iterIPN6Market10TradeOrderEEC2B8ue170006ES3_, symObjAddr: 0x4B674, symBinAddr: 0x10004F338, symSize: 0xC8 }
  - { offsetInCU: 0x16A97, offset: 0x16A97, size: 0x8, addend: 0x0, symName: __ZNKSt3__16vectorIN6Market10TradeOrderENS_9allocatorIS2_EEE5frontB8ue170006Ev, symObjAddr: 0x4B73C, symBinAddr: 0x10004F400, symSize: 0xF4 }
  - { offsetInCU: 0x16ABD, offset: 0x16ABD, size: 0x8, addend: 0x0, symName: __ZNKSt3__16vectorIN6Market10TradeOrderENS_9allocatorIS2_EEE5emptyB8ue170006Ev, symObjAddr: 0x4B830, symBinAddr: 0x10004F4F4, symSize: 0xF8 }
  - { offsetInCU: 0x16AE3, offset: 0x16AE3, size: 0x8, addend: 0x0, symName: __ZNSt3__16vectorIN6Market10TradeOrderENS_9allocatorIS2_EEE8pop_backEv, symObjAddr: 0x4BCB0, symBinAddr: 0x10004F974, symSize: 0x150 }
  - { offsetInCU: 0x16B0B, offset: 0x16B0B, size: 0x8, addend: 0x0, symName: __ZNSt3__111__wrap_iterIPN6Market10TradeOrderEEppB8ue170006Ev, symObjAddr: 0x4CB2C, symBinAddr: 0x1000507F0, symSize: 0x1A8 }
  - { offsetInCU: 0x16B31, offset: 0x16B31, size: 0x8, addend: 0x0, symName: __ZNK6Market5Stock12buyerCompareclERKNS_10TradeOrderES4_, symObjAddr: 0x4D420, symBinAddr: 0x1000510E4, symSize: 0x45C }
  - { offsetInCU: 0x16B75, offset: 0x16B75, size: 0x8, addend: 0x0, symName: __ZNSt3__16vectorIN6Market10TradeOrderENS_9allocatorIS2_EEE17__destruct_at_endB8ue170006EPS2_, symObjAddr: 0x4D87C, symBinAddr: 0x100051540, symSize: 0x90 }
  - { offsetInCU: 0x16BB9, offset: 0x16BB9, size: 0x8, addend: 0x0, symName: __ZNSt3__118basic_stringstreamIcNS_11char_traitsIcEENS_9allocatorIcEEED2Ev, symObjAddr: 0x4F030, symBinAddr: 0x100052CF4, symSize: 0x264 }
  - { offsetInCU: 0x16BF3, offset: 0x16BF3, size: 0x8, addend: 0x0, symName: __ZThn16_NSt3__118basic_stringstreamIcNS_11char_traitsIcEENS_9allocatorIcEEED1Ev, symObjAddr: 0x4F294, symBinAddr: 0x100052F58, symSize: 0x1C }
  - { offsetInCU: 0x16C0A, offset: 0x16C0A, size: 0x8, addend: 0x0, symName: __ZTv0_n24_NSt3__118basic_stringstreamIcNS_11char_traitsIcEENS_9allocatorIcEEED1Ev, symObjAddr: 0x4F2B0, symBinAddr: 0x100052F74, symSize: 0xB0 }
  - { offsetInCU: 0x16C26, offset: 0x16C26, size: 0x8, addend: 0x0, symName: __ZNSt3__115basic_stringbufIcNS_11char_traitsIcEENS_9allocatorIcEEED1Ev, symObjAddr: 0x4F360, symBinAddr: 0x100053024, symSize: 0x78 }
  - { offsetInCU: 0x16C53, offset: 0x16C53, size: 0x8, addend: 0x0, symName: __ZNSt3__115basic_stringbufIcNS_11char_traitsIcEENS_9allocatorIcEEED2Ev, symObjAddr: 0x4F3D8, symBinAddr: 0x10005309C, symSize: 0xDC }
  - { offsetInCU: 0x16C80, offset: 0x16C80, size: 0x8, addend: 0x0, symName: __ZNSt3__16vectorIN6Market6TraderENS_9allocatorIS2_EEED2B8ue170006Ev, symObjAddr: 0x4F4B4, symBinAddr: 0x100053178, symSize: 0x298 }
  - { offsetInCU: 0x16CAB, offset: 0x16CAB, size: 0x8, addend: 0x0, symName: __ZNSt3__16vectorIN6Market6TraderENS_9allocatorIS2_EEE16__destroy_vectorC1B8ue170006ERS5_, symObjAddr: 0x4F74C, symBinAddr: 0x100053410, symSize: 0x80 }
  - { offsetInCU: 0x16CE4, offset: 0x16CE4, size: 0x8, addend: 0x0, symName: __ZNSt3__16vectorIN6Market6TraderENS_9allocatorIS2_EEE16__destroy_vectorclB8ue170006Ev, symObjAddr: 0x4F7CC, symBinAddr: 0x100053490, symSize: 0x43C }
  - { offsetInCU: 0x16D0A, offset: 0x16D0A, size: 0x8, addend: 0x0, symName: __ZNSt3__16vectorIN6Market6TraderENS_9allocatorIS2_EEE16__destroy_vectorC2B8ue170006ERS5_, symObjAddr: 0x4FC08, symBinAddr: 0x1000538CC, symSize: 0x108 }
  - { offsetInCU: 0x16D43, offset: 0x16D43, size: 0x8, addend: 0x0, symName: __ZNSt3__16vectorIN6Market6TraderENS_9allocatorIS2_EEE7__clearB8ue170006Ev, symObjAddr: 0x4FD10, symBinAddr: 0x1000539D4, symSize: 0xB0 }
  - { offsetInCU: 0x16D69, offset: 0x16D69, size: 0x8, addend: 0x0, symName: __ZNSt3__16vectorIN6Market5StockENS_9allocatorIS2_EEED2B8ue170006Ev, symObjAddr: 0x4FDC0, symBinAddr: 0x100053A84, symSize: 0x298 }
  - { offsetInCU: 0x16D94, offset: 0x16D94, size: 0x8, addend: 0x0, symName: __ZNSt3__16vectorIN6Market5StockENS_9allocatorIS2_EEE16__destroy_vectorC1B8ue170006ERS5_, symObjAddr: 0x50058, symBinAddr: 0x100053D1C, symSize: 0x80 }
  - { offsetInCU: 0x16DCD, offset: 0x16DCD, size: 0x8, addend: 0x0, symName: __ZNSt3__16vectorIN6Market5StockENS_9allocatorIS2_EEE16__destroy_vectorclB8ue170006Ev, symObjAddr: 0x500D8, symBinAddr: 0x100053D9C, symSize: 0x43C }
  - { offsetInCU: 0x16DF3, offset: 0x16DF3, size: 0x8, addend: 0x0, symName: __ZNSt3__16vectorIN6Market5StockENS_9allocatorIS2_EEE16__destroy_vectorC2B8ue170006ERS5_, symObjAddr: 0x50514, symBinAddr: 0x1000541D8, symSize: 0x108 }
  - { offsetInCU: 0x16E2C, offset: 0x16E2C, size: 0x8, addend: 0x0, symName: __ZNSt3__16vectorIN6Market5StockENS_9allocatorIS2_EEE7__clearB8ue170006Ev, symObjAddr: 0x5061C, symBinAddr: 0x1000542E0, symSize: 0xB0 }
  - { offsetInCU: 0x16E52, offset: 0x16E52, size: 0x8, addend: 0x0, symName: __ZN6MarketD2Ev, symObjAddr: 0x506CC, symBinAddr: 0x100054390, symSize: 0x84 }
...
